(lp0
(lp1
S'long'
p2
aS'long'
p3
aS'face'
p4
aS'present'
p5
acnumpy.core.multiarray
scalar
p6
(cnumpy
dtype
p7
(S'f8'
p8
I0
I1
tp9
Rp10
(I3
S'<'
p11
NNNI-1
I-1
I0
tp12
bS'\x8aY\xbf+F\xfa\x8e@'
p13
tp14
Rp15
aI1
aa(lp16
g2
ag3
aS'letter'
p17
ag5
ag6
(g10
S'g\x17\xbd\xd9\xc8~\x93@'
p18
tp19
Rp20
aI0
aa(lp21
g2
ag3
ag17
aS'absent'
p22
ag6
(g10
S'f/D\xd4\x15;\x8e@'
p23
tp24
Rp25
aI0
aa(lp26
g2
ag3
ag4
ag5
ag6
(g10
S'+OH\xefP7\x91@'
p27
tp28
Rp29
aI1
aa(lp30
g2
ag3
ag4
ag5
ag6
(g10
S"\xdb-;\xd3'\x85\x93@"
p31
tp32
Rp33
aI0
aa(lp34
g2
ag3
aS'house'
p35
ag5
ag6
(g10
S'\xac\xcf,\xf4\r\x01\x8e@'
p36
tp37
Rp38
aI1
aa(lp39
g2
ag3
ag35
ag5
ag6
(g10
S'@\xd7@~wZ\x94@'
p40
tp41
Rp42
aI1
aa(lp43
g2
ag3
ag17
ag22
ag6
(g10
S'\x06\x8ae\x07?\xe8\x95@'
p44
tp45
Rp46
aI0
aa(lp47
g2
ag3
ag4
ag22
ag6
(g10
S'\x9dc5\xd2\x98\x1c\x8e@'
p48
tp49
Rp50
aI1
aa(lp51
g2
ag3
ag35
ag22
ag6
(g10
S'Z^\xae{_>\x94@'
p52
tp53
Rp54
aI0
aa(lp55
g2
ag3
ag17
ag5
ag6
(g10
S'\xbb\xde\xd91\xf1\xfa\x95@'
p56
tp57
Rp58
aI0
aa(lp59
g2
ag3
ag4
ag22
ag6
(g10
S'\xc1\x1a\x8c\x80\x8dL\x97@'
p60
tp61
Rp62
aI0
aa(lp63
g2
ag3
ag17
ag5
ag6
(g10
S'\xcd\xdb\xa2\x18\x85\x90\x93@'
p64
tp65
Rp66
aI0
aa(lp67
g2
ag3
ag4
ag5
ag6
(g10
S'\xb1^/d\xb3\x17\x97@'
p68
tp69
Rp70
aI1
aa(lp71
g2
ag3
ag17
ag5
ag6
(g10
S'\xca&N\xb4\xd9\x1d\x97@'
p72
tp73
Rp74
aI1
aa(lp75
g2
ag3
ag17
ag22
ag6
(g10
S"\xd4\x9c,\x94'\xb3\x8f@"
p76
tp77
Rp78
aI0
aa(lp79
g2
ag3
ag17
ag5
ag6
(g10
S'\xb0I\xde\x1b;\xb6\x90@'
p80
tp81
Rp82
aI1
aa(lp83
g2
ag3
ag35
ag22
ag6
(g10
S'\xf5:\xd6=\x86%\x8e@'
p84
tp85
Rp86
aI1
aa(lp87
g2
ag3
ag4
ag22
ag6
(g10
S'\x00\x8a\xbc\x10\xe4\xe1\x93@'
p88
tp89
Rp90
aI1
aa(lp91
g2
ag3
ag35
ag22
ag6
(g10
S'\xbd\x11\xf0\x99\xbf\xd5\x8e@'
p92
tp93
Rp94
aI0
aa(lp95
g2
ag3
ag4
ag22
ag6
(g10
S'_P\xab^\xfe&\x8c@'
p96
tp97
Rp98
aI0
aa(lp99
g2
ag3
ag35
ag5
ag6
(g10
S'\x9aW\xa1\xd1\x92\x95\x8f@'
p100
tp101
Rp102
aI0
aa(lp103
g2
ag3
ag35
ag5
ag6
(g10
S'h\xe7\xfe\xd7\xab{\x8f@'
p104
tp105
Rp106
aI0
aa(lp107
g2
ag3
ag35
ag5
ag6
(g10
S'\xa5c\xf2\xc0N\xdf\x8c@'
p108
tp109
Rp110
aI0
aa(lp111
g2
ag3
ag4
ag5
ag6
(g10
S'\xce\xc3\xf07\xdd\xd3\x95@'
p112
tp113
Rp114
aI1
aa(lp115
g2
ag3
ag17
ag22
ag6
(g10
S'\xa7\xbbB5\x97\xd9\x8e@'
p116
tp117
Rp118
aI0
aa(lp119
g2
ag3
ag17
ag22
ag6
(g10
S'\x82\x1f\xd4tE[\x92@'
p120
tp121
Rp122
aI0
aa(lp123
g2
ag3
ag4
ag5
ag6
(g10
S'\xf6\xc5P\xd7 w\x92@'
p124
tp125
Rp126
aI0
aa(lp127
g2
ag3
ag35
ag22
ag6
(g10
S'x\xa4\xa3\x8d1\xf6\x96@'
p128
tp129
Rp130
aI1
aa(lp131
g2
ag3
ag17
ag5
ag6
(g10
S'\x18Y\xa2\xe7`\xb8\x90@'
p132
tp133
Rp134
aI0
aa(lp135
g2
ag3
ag4
ag22
ag6
(g10
S'\x07\x1b\x06\x8a)\xfc\x91@'
p136
tp137
Rp138
aI0
aa(lp139
g2
ag3
ag35
ag22
ag6
(g10
S'\r;\x04L\x9bR\x91@'
p140
tp141
Rp142
aI0
aa(lp143
g2
ag3
ag35
ag5
ag6
(g10
S'6N\xca\x16\xa0\xe4\x93@'
p144
tp145
Rp146
aI0
aa(lp147
g2
ag3
ag17
ag22
ag6
(g10
S'\xffz\xe9\x91\xd4\x03\x91@'
p148
tp149
Rp150
aI0
aa(lp151
g2
ag3
ag35
ag22
ag6
(g10
S'\xd1\xb6\x16\x01\x96\xad\x92@'
p152
tp153
Rp154
aI1
aa(lp155
g2
ag3
ag4
ag22
ag6
(g10
S'Na\x99\x9d7\xe3\x90@'
p156
tp157
Rp158
aI0
aa(lp159
g2
ag3
ag35
ag5
ag6
(g10
S'\xb7\x81\xd9\x8dMz\x95@'
p160
tp161
Rp162
aI1
aa(lp163
g2
ag3
ag35
ag5
ag6
(g10
S'\x84\x94\xa2k>J\x90@'
p164
tp165
Rp166
aI1
aa(lp167
g2
ag3
ag35
ag5
ag6
(g10
S'\x97$\t\xfe\xce\xde\x92@'
p168
tp169
Rp170
aI1
aa(lp171
g2
ag3
ag17
ag22
ag6
(g10
S'\xf26\r/U\xc8\x94@'
p172
tp173
Rp174
aI0
aa(lp175
g2
ag3
ag17
ag5
ag6
(g10
S'\x0fl\xc9\xf9t\xc8\x91@'
p176
tp177
Rp178
aI0
aa(lp179
g2
ag3
ag4
ag22
ag6
(g10
S'h*x\xa9\xfa_\x8f@'
p180
tp181
Rp182
aI0
aa(lp183
g2
ag3
ag4
ag22
ag6
(g10
S'\r\xc0\xc5\xbd\xaf\x1b\x93@'
p184
tp185
Rp186
aI1
aa(lp187
g2
ag3
ag17
ag22
ag6
(g10
S'\xd0\x134\x95\xb4x\x90@'
p188
tp189
Rp190
aI0
aa(lp191
g2
ag3
ag35
ag5
ag6
(g10
S'\x8e\xbf\x9f\xce\xa3=\x96@'
p192
tp193
Rp194
aI0
aa(lp195
g2
ag3
ag17
ag5
ag6
(g10
S'\xbaZ\x9c\t&t\x96@'
p196
tp197
Rp198
aI1
aa(lp199
g2
ag3
ag35
ag22
ag6
(g10
S'\xe86\xc6a\x9a\xf5\x90@'
p200
tp201
Rp202
aI0
aa(lp203
g2
ag3
ag17
ag5
ag6
(g10
S'\xc7\x12qB\x04|\x92@'
p204
tp205
Rp206
aI1
aa(lp207
g2
ag3
ag35
ag5
ag6
(g10
S'l\xc62k\xdf\xdc\x95@'
p208
tp209
Rp210
aI1
aa(lp211
g2
ag3
ag4
ag22
ag6
(g10
S'\x01\xc9\xb0qs/\x91@'
p212
tp213
Rp214
aI0
aa(lp215
g2
ag3
ag35
ag22
ag6
(g10
S'\x04\xf7a>\xf2\xd4\x91@'
p216
tp217
Rp218
aI0
aa(lp219
g2
ag3
ag35
ag22
ag6
(g10
S'\xac\x17gCUJ\x96@'
p220
tp221
Rp222
aI1
aa(lp223
g2
ag3
ag35
ag22
ag6
(g10
S'\xe4\xe5e\x157(\x90@'
p224
tp225
Rp226
aI1
aa(lp227
g2
ag3
ag35
ag5
ag6
(g10
S'\xa6A\xe2\xd3\xd7L\x92@'
p228
tp229
Rp230
aI1
aa(lp231
g2
ag3
ag17
ag22
ag6
(g10
S'b"\xa7J\xbcq\x90@'
p232
tp233
Rp234
aI1
aa(lp235
g2
ag3
ag4
ag5
ag6
(g10
S'.\x9f?\x8bm\xc1\x95@'
p236
tp237
Rp238
aI0
aa(lp239
g2
ag3
ag35
ag5
ag6
(g10
S'\xde\x05)l\xdbT\x93@'
p240
tp241
Rp242
aI1
aa(lp243
g2
ag3
ag4
ag22
ag6
(g10
S'\x17W\x8d\x8eb\x0e\x92@'
p244
tp245
Rp246
aI1
aa(lp247
g2
ag3
ag35
ag5
ag6
(g10
S',\x8b\xf5d^7\x95@'
p248
tp249
Rp250
aI1
aa(lp251
g2
ag3
ag17
ag5
ag6
(g10
S'\x97\xb7\xab\xa8\xe1A\x94@'
p252
tp253
Rp254
aI1
aa(lp255
g2
ag3
ag17
ag22
ag6
(g10
S'\xb8 e\x8d)\x9e\x94@'
p256
tp257
Rp258
aI1
aa(lp259
g2
ag3
ag35
ag5
ag6
(g10
S'\xbc\x84k\xb1)\xbb\x8e@'
p260
tp261
Rp262
aI0
aa(lp263
g2
ag3
ag4
ag5
ag6
(g10
S'K&\x11!\x94W\x90@'
p264
tp265
Rp266
aI1
aa(lp267
g2
ag3
ag35
ag22
ag6
(g10
S'k%Cj\xc40\x8d@'
p268
tp269
Rp270
aI1
aa(lp271
g2
ag3
ag35
ag22
ag6
(g10
S'\xac\xb1K\xca|\x0b\x95@'
p272
tp273
Rp274
aI0
aa(lp275
g2
ag3
ag4
ag5
ag6
(g10
S'O\xaen\xfa"n\x94@'
p276
tp277
Rp278
aI1
aa(lp279
g2
ag3
ag17
ag5
ag6
(g10
S'P\xcbE\x00\x01\xbd\x8f@'
p280
tp281
Rp282
aI0
aa(lp283
g2
ag3
ag4
ag5
ag6
(g10
S'\n\\\xdf\x91\x07\x7f\x92@'
p284
tp285
Rp286
aI0
aa(lp287
g2
ag3
ag35
ag22
ag6
(g10
S'F\xa9 n\xba\x18\x8d@'
p288
tp289
Rp290
aI1
aa(lp291
g2
ag3
ag35
ag5
ag6
(g10
S'\xd8\xe4\xa4\xe3\xb5\x07\x8f@'
p292
tp293
Rp294
aI1
aa(lp295
g2
ag3
ag17
ag5
ag6
(g10
S'\xf9m\xa3e\xa1\x19\x93@'
p296
tp297
Rp298
aI0
aa(lp299
g2
ag3
ag17
ag5
ag6
(g10
S'Zi\xa4\x8e\xff\x02\x8d@'
p300
tp301
Rp302
aI0
aa(lp303
g2
ag3
ag35
ag22
ag6
(g10
S',\xe4\xd1\xeek\xc2\x91@'
p304
tp305
Rp306
aI0
aa(lp307
g2
ag3
ag4
ag5
ag6
(g10
S'\xe4\xb7\x9d\xaa\xe4u\x8c@'
p308
tp309
Rp310
aI1
aa(lp311
g2
ag3
ag17
ag22
ag6
(g10
S'\x08s\xbdAW\xe4\x91@'
p312
tp313
Rp314
aI0
aa(lp315
g2
ag3
ag4
ag22
ag6
(g10
S'\xe2.\xd7\xdf\xa4n\x92@'
p316
tp317
Rp318
aI0
aa(lp319
g2
ag3
ag4
ag22
ag6
(g10
S'\xbf\xd0\xdd\xbd;%\x91@'
p320
tp321
Rp322
aI0
aa(lp323
g2
ag3
ag17
ag5
ag6
(g10
S'\x92nVO-!\x93@'
p324
tp325
Rp326
aI1
aa(lp327
g2
ag3
ag4
ag5
ag6
(g10
S'\xefe\xddz\x8f\x1f\x94@'
p328
tp329
Rp330
aI1
aa(lp331
g2
ag3
ag17
ag5
ag6
(g10
S'\xa8\xb8\x13{Q\xdb\x92@'
p332
tp333
Rp334
aI0
aa(lp335
g2
ag3
ag35
ag22
ag6
(g10
S'\x05)\x0c\x99\xe2O\x94@'
p336
tp337
Rp338
aI1
aa(lp339
g2
ag3
ag4
ag5
ag6
(g10
S'\x8aC`\xd0\xf1\xcc\x8f@'
p340
tp341
Rp342
aI0
aa(lp343
g2
ag3
ag4
ag22
ag6
(g10
S'\xe0Pz\xe8\xb2U\x8f@'
p344
tp345
Rp346
aI1
aa(lp347
g2
ag3
ag17
ag5
ag6
(g10
S'0\xd9\xb5\x853\xd6\x94@'
p348
tp349
Rp350
aI0
aa(lp351
g2
ag3
ag17
ag5
ag6
(g10
S'\xc8u\x7f\xbba\x1f\x91@'
p352
tp353
Rp354
aI0
aa(lp355
g2
ag3
ag35
ag5
ag6
(g10
S'+<[\xf9\xa0b\x8e@'
p356
tp357
Rp358
aI1
aa(lp359
g2
ag3
ag35
ag5
ag6
(g10
S'\xa4\x13[\xb0U9\x8c@'
p360
tp361
Rp362
aI1
aa(lp363
g2
ag3
ag4
ag22
ag6
(g10
S'j4\x8f\xb3\xbc\x8e\x92@'
p364
tp365
Rp366
aI0
aa(lp367
g2
ag3
ag17
ag22
ag6
(g10
S'\x9d\xf9\xbe\x81\xd4\x9c\x91@'
p368
tp369
Rp370
aI0
aa(lp371
g2
ag3
ag17
ag5
ag6
(g10
S'\xac\x14\x1d\\\x11\xeb\x96@'
p372
tp373
Rp374
aI0
aa(lp375
g2
ag3
ag17
ag22
ag6
(g10
S'+\x1d%2\xff\x98\x8e@'
p376
tp377
Rp378
aI0
aa(lp379
g2
ag3
ag17
ag22
ag6
(g10
S'Tq\xdb\xb3\x96a\x94@'
p380
tp381
Rp382
aI0
aa(lp383
g2
ag3
ag4
ag5
ag6
(g10
S'\xdd\x9a\x9f\xe7\xca!\x95@'
p384
tp385
Rp386
aI0
aa(lp387
g2
ag3
ag17
ag5
ag6
(g10
S'\xc7\xc3c\xca\x03\t\x92@'
p388
tp389
Rp390
aI0
aa(lp391
g2
ag3
ag17
ag22
ag6
(g10
S'Y\xd4*Zu\xce\x90@'
p392
tp393
Rp394
aI1
aa(lp395
g2
ag3
ag4
ag5
ag6
(g10
S'\xe0\x9d\x9b\xb5\x83m\x95@'
p396
tp397
Rp398
aI0
aa(lp399
g2
ag3
ag17
ag22
ag6
(g10
S'\xe3\x1cg\xa19\xf6\x93@'
p400
tp401
Rp402
aI0
aa(lp403
g2
ag3
ag4
ag5
ag6
(g10
S'm\xa8;\xb4\xc0\\\x8c@'
p404
tp405
Rp406
aI1
aa(lp407
g2
ag3
ag4
ag22
ag6
(g10
S'Z.U\xb0\x8a\x10\x90@'
p408
tp409
Rp410
aI0
aa(lp411
g2
ag3
ag17
ag22
ag6
(g10
S'F+U\xee\x9d\x0e\x97@'
p412
tp413
Rp414
aI0
aa(lp415
g2
ag3
ag35
ag5
ag6
(g10
S'\xfa\x02\xc6\xf4\xd9+\x91@'
p416
tp417
Rp418
aI1
aa(lp419
g2
ag3
ag35
ag5
ag6
(g10
S'\x81\x02\xa8\x9e\xd6\xd3\x90@'
p420
tp421
Rp422
aI0
aa(lp423
g2
ag3
ag35
ag22
ag6
(g10
S'\x1d)\x16\xb91\x97\x91@'
p424
tp425
Rp426
aI1
aa(lp427
g2
ag3
ag4
ag5
ag6
(g10
S'\x17\xc6\xcb!!f\x8c@'
p428
tp429
Rp430
aI0
aa(lp431
g2
ag3
ag4
ag22
ag6
(g10
S'\xd7\xf0\x8aw4\xcc\x90@'
p432
tp433
Rp434
aI0
aa(lp435
g2
ag3
ag17
ag22
ag6
(g10
S'N\xb5\xc3\x08\xbc\x1e\x91@'
p436
tp437
Rp438
aI0
aa(lp439
g2
ag3
ag17
ag5
ag6
(g10
S'\x11\xff\xb6f\x00\xa9\x8d@'
p440
tp441
Rp442
aI1
aa(lp443
g2
ag3
ag35
ag22
ag6
(g10
S'\xf0\x11\x96\xfcwP\x97@'
p444
tp445
Rp446
aI1
aa(lp447
g2
ag3
ag35
ag5
ag6
(g10
S'\xa0\xd0M\xb75\xac\x93@'
p448
tp449
Rp450
aI0
aa(lp451
g2
ag3
ag35
ag22
ag6
(g10
S"g'x\x10\xbci\x90@"
p452
tp453
Rp454
aI0
aa(lp455
g2
ag3
ag35
ag22
ag6
(g10
S'\x13ua\x1d\x18\x9b\x96@'
p456
tp457
Rp458
aI0
aa(lp459
g2
ag3
ag17
ag5
ag6
(g10
S'\xc28\x88S\xb0\x06\x92@'
p460
tp461
Rp462
aI0
aa(lp463
g2
ag3
ag4
ag22
ag6
(g10
S'\x17\xcc\x0e\xaa\xd9\xb0\x92@'
p464
tp465
Rp466
aI1
aa(lp467
g2
ag3
ag17
ag5
ag6
(g10
S'8p$K\xe1\x83\x92@'
p468
tp469
Rp470
aI1
aa(lp471
g2
ag3
ag35
ag22
ag6
(g10
S'\x912\x8a\x9b7\xc4\x90@'
p472
tp473
Rp474
aI0
aa(lp475
g2
ag3
ag17
ag5
ag6
(g10
S'al\x8e\xfb\x91\x86\x90@'
p476
tp477
Rp478
aI0
aa(lp479
g2
ag3
ag4
ag22
ag6
(g10
S'\xce\xa9#I\xb2\x00\x92@'
p480
tp481
Rp482
aI1
aa(lp483
g2
ag3
ag35
ag5
ag6
(g10
S'\x10\x8a\xaf\x08\x15\xfd\x92@'
p484
tp485
Rp486
aI0
aa(lp487
g2
ag3
ag4
ag22
ag6
(g10
S'~\xc8xtyB\x97@'
p488
tp489
Rp490
aI0
aa(lp491
g2
ag3
ag17
ag5
ag6
(g10
S'O\xcar?\xaaC\x90@'
p492
tp493
Rp494
aI1
aa(lp495
g2
ag3
ag17
ag22
ag6
(g10
S'\x96\x12\x17\xd5\x82c\x97@'
p496
tp497
Rp498
aI1
aa(lp499
g2
ag3
ag17
ag5
ag6
(g10
S'a*\xe7\xc0x\x84\x93@'
p500
tp501
Rp502
aI0
aa(lp503
g2
ag3
ag35
ag5
ag6
(g10
S'\x8d\xff\xeb\x15gH\x8f@'
p504
tp505
Rp506
aI0
aa(lp507
g2
ag3
ag4
ag22
ag6
(g10
S'\xf1XCG\xe9\xdf\x93@'
p508
tp509
Rp510
aI0
aa(lp511
g2
ag3
ag17
ag22
ag6
(g10
S'|\xc1\xb5\xe9&\xd1\x92@'
p512
tp513
Rp514
aI0
aa(lp515
g2
ag3
ag35
ag22
ag6
(g10
S'N\x0f-\x1d\x07b\x95@'
p516
tp517
Rp518
aI0
aa(lp519
g2
ag3
ag35
ag5
ag6
(g10
S'>q\x10\x04\x1e\x82\x95@'
p520
tp521
Rp522
aI0
aa(lp523
g2
ag3
ag4
ag5
ag6
(g10
S'\x86\xf8\xc7\xa1u.\x8c@'
p524
tp525
Rp526
aI0
aa(lp527
g2
ag3
ag4
ag5
ag6
(g10
S'X\x86\xdewT\xe0\x95@'
p528
tp529
Rp530
aI0
aa(lp531
g2
ag3
ag35
ag5
ag6
(g10
S'"\x00{b\xfc9\x94@'
p532
tp533
Rp534
aI0
aa(lp535
g2
ag3
ag35
ag22
ag6
(g10
S'\x84\xdaxi\xf0\xab\x94@'
p536
tp537
Rp538
aI0
aa(lp539
g2
ag3
ag4
ag5
ag6
(g10
S"A\xfc\x81 |'\x90@"
p540
tp541
Rp542
aI1
aa(lp543
g2
ag3
ag17
ag5
ag6
(g10
S'\xe9\xfd\x84,\xf9\x8d\x95@'
p544
tp545
Rp546
aI0
aa(lp547
g2
ag3
ag17
ag5
ag6
(g10
S'\xf8B\xff,\xd8N\x91@'
p548
tp549
Rp550
aI0
aa(lp551
g2
ag3
ag4
ag22
ag6
(g10
S'N\x03\xa9\xc5T2\x93@'
p552
tp553
Rp554
aI0
aa(lp555
g2
ag3
ag35
ag5
ag6
(g10
S'\xf0\xa9\xdb\xab?g\x92@'
p556
tp557
Rp558
aI1
aa(lp559
g2
ag3
ag17
ag22
ag6
(g10
S'\xca\xc6\xf2\x05\xe5v\x93@'
p560
tp561
Rp562
aI1
aa(lp563
g2
ag3
ag4
ag22
ag6
(g10
S'\xa0\xbags:\xea\x92@'
p564
tp565
Rp566
aI0
aa(lp567
g2
ag3
ag4
ag5
ag6
(g10
S'\x0c\xb1\x90\xc6+\xa3\x94@'
p568
tp569
Rp570
aI1
aa(lp571
g2
ag3
ag35
ag22
ag6
(g10
S'\xd2\xa1lS7\x1c\x8d@'
p572
tp573
Rp574
aI1
aa(lp575
g2
ag3
ag35
ag5
ag6
(g10
S'~\xee\xd2Q\xe9\x83\x92@'
p576
tp577
Rp578
aI0
aa(lp579
g2
ag3
ag35
ag22
ag6
(g10
S'q\x0b\xdaL@\x9e\x92@'
p580
tp581
Rp582
aI1
aa(lp583
g2
ag3
ag4
ag22
ag6
(g10
S'\xed\xd0l\x06\xd5\xd7\x94@'
p584
tp585
Rp586
aI0
aa(lp587
g2
ag3
ag35
ag22
ag6
(g10
S'\xca\xbc\xc2\x97\xa8.\x94@'
p588
tp589
Rp590
aI0
aa(lp591
g2
ag3
ag4
ag5
ag6
(g10
S'\xee\xb9\xa8fA\x89\x92@'
p592
tp593
Rp594
aI1
aa(lp595
g2
ag3
ag17
ag5
ag6
(g10
S'l\x08`\x1c\xb4\xba\x93@'
p596
tp597
Rp598
aI0
aa(lp599
g2
ag3
ag35
ag22
ag6
(g10
S'\xa1\xa2\x8aH;P\x93@'
p600
tp601
Rp602
aI1
aa(lp603
g2
ag3
ag4
ag22
ag6
(g10
S'\xde\xf4\x12-\xd4B\x93@'
p604
tp605
Rp606
aI0
aa(lp607
g2
ag3
ag4
ag5
ag6
(g10
S'\x19\xd9\xd5 H\xde\x91@'
p608
tp609
Rp610
aI1
aa(lp611
g2
ag3
ag17
ag22
ag6
(g10
S'\xd2w\xc1\x94\xfa.\x95@'
p612
tp613
Rp614
aI0
aa(lp615
g2
ag3
ag35
ag22
ag6
(g10
S'\xe6\xd3\x12\xff\x1da\x91@'
p616
tp617
Rp618
aI1
aa(lp619
g2
ag3
ag4
ag5
ag6
(g10
S'}/H\xd8\x1ch\x91@'
p620
tp621
Rp622
aI1
aa(lp623
g2
ag3
ag4
ag22
ag6
(g10
S'/H\xe0%X\x15\x8e@'
p624
tp625
Rp626
aI0
aa(lp627
g2
ag3
ag17
ag22
ag6
(g10
S'2\x18b+\xf2\x8a\x90@'
p628
tp629
Rp630
aI0
aa(lp631
g2
ag3
ag4
ag22
ag6
(g10
S'\xe6\x08\x92Mq\x8d\x90@'
p632
tp633
Rp634
aI0
aa(lp635
g2
ag3
ag17
ag22
ag6
(g10
S'\xc7\x7f\x90\xf9\x0e\x05\x94@'
p636
tp637
Rp638
aI1
aa(lp639
g2
ag3
ag4
ag5
ag6
(g10
S'\xca\xcb\x80\xcc\xb0~\x94@'
p640
tp641
Rp642
aI1
aa(lp643
g2
ag3
ag4
ag22
ag6
(g10
S'\xb2`\x88!{\x9e\x90@'
p644
tp645
Rp646
aI0
aa(lp647
g2
ag3
ag4
ag5
ag6
(g10
S'K$\xbe\xddfq\x91@'
p648
tp649
Rp650
aI1
aa(lp651
g2
ag3
ag17
ag22
ag6
(g10
S'\x98\xfc\n\xd7\xa2\xe4\x90@'
p652
tp653
Rp654
aI1
aa(lp655
g2
ag3
ag4
ag22
ag6
(g10
S'D}\xec^\x19\xd7\x8f@'
p656
tp657
Rp658
aI1
aa(lp659
g2
ag3
ag17
ag22
ag6
(g10
S'\x14r\x8d\xaa\xf0%\x94@'
p660
tp661
Rp662
aI1
aa(lp663
g2
ag3
ag17
ag5
ag6
(g10
S'\xda\xd3\x93\x8bk\x1b\x94@'
p664
tp665
Rp666
aI0
aa(lp667
g2
ag3
ag35
ag5
ag6
(g10
S'\x0b\xa7Np\xaaf\x97@'
p668
tp669
Rp670
aI1
aa(lp671
g2
ag3
ag4
ag5
ag6
(g10
S'\x94\xa3\x1b\xc1\x02]\x96@'
p672
tp673
Rp674
aI0
aa(lp675
g2
ag3
ag35
ag22
ag6
(g10
S'G!\x9f\x9d\x1f^\x92@'
p676
tp677
Rp678
aI1
aa(lp679
g2
ag3
ag4
ag22
ag6
(g10
S'\x7f\x19.LP\xd3\x8f@'
p680
tp681
Rp682
aI1
aa(lp683
g2
ag3
ag17
ag22
ag6
(g10
S'\x15_\x85\xae\xf7\xfd\x8f@'
p684
tp685
Rp686
aI0
aa.