(lp0
(lp1
S'blocked'
p2
aS'long'
p3
aS'house'
p4
aS'absent'
p5
acnumpy.core.multiarray
scalar
p6
(cnumpy
dtype
p7
(S'f8'
p8
I0
I1
tp9
Rp10
(I3
S'<'
p11
NNNI-1
I-1
I0
tp12
bS'&i\x8f\xc4\xdc5\x91@'
p13
tp14
Rp15
aI0
aa(lp16
g2
ag3
aS'face'
p17
ag5
ag6
(g10
S'\xd6\xc7\xa2g\xc8{\x94@'
p18
tp19
Rp20
aI0
aa(lp21
g2
ag3
ag4
aS'present'
p22
ag6
(g10
S'\xd3\x02\xf2\x94\x85\x87\x8c@'
p23
tp24
Rp25
aI1
aa(lp26
g2
ag3
aS'letter'
p27
ag5
ag6
(g10
S'\x1aKpV\xd6~\x8f@'
p28
tp29
Rp30
aI0
aa(lp31
g2
ag3
ag27
ag5
ag6
(g10
S'\x85\xa5\xb0\xae\xd8\xf9\x92@'
p32
tp33
Rp34
aI1
aa(lp35
g2
ag3
ag17
ag5
ag6
(g10
S'\n\xe3<5\x86\xde\x8e@'
p36
tp37
Rp38
aI1
aa(lp39
g2
ag3
ag4
ag5
ag6
(g10
S"\xd5'@\xd0[X\x97@"
p40
tp41
Rp42
aI0
aa(lp43
g2
ag3
ag17
ag22
ag6
(g10
S'\xb4A\xe8\nVe\x92@'
p44
tp45
Rp46
aI0
aa(lp47
g2
ag3
ag4
ag5
ag6
(g10
S'\xbc\x96m&\xde&\x8d@'
p48
tp49
Rp50
aI1
aa(lp51
g2
ag3
ag27
ag22
ag6
(g10
S'`\x95\xed\xa5\xce\xd5\x8d@'
p52
tp53
Rp54
aI0
aa(lp55
g2
ag3
ag17
ag5
ag6
(g10
S'<t\xff\xce\x1bT\x97@'
p56
tp57
Rp58
aI1
aa(lp59
g2
ag3
ag17
ag22
ag6
(g10
S'\xc2\x1f\xcd\xd7\xbd\x1c\x8e@'
p60
tp61
Rp62
aI0
aa(lp63
g2
ag3
ag4
ag22
ag6
(g10
S'};%]\x0c\xe7\x90@'
p64
tp65
Rp66
aI0
aa(lp67
g2
ag3
ag17
ag22
ag6
(g10
S'\x98\x06u(-\x9c\x92@'
p68
tp69
Rp70
aI1
aa(lp71
g2
ag3
ag4
ag5
ag6
(g10
S'r\xc2\xf9\x0c\x05|\x93@'
p72
tp73
Rp74
aI0
aa(lp75
g2
ag3
ag27
ag5
ag6
(g10
S'\xcf\x94\xcc\xb2\xac\x1a\x95@'
p76
tp77
Rp78
aI1
aa(lp79
g2
ag3
ag17
ag5
ag6
(g10
S')\x1c:\x14\xef*\x8e@'
p80
tp81
Rp82
aI1
aa(lp83
g2
ag3
ag27
ag5
ag6
(g10
S'?Pz\xab\xb2\xa9\x95@'
p84
tp85
Rp86
aI1
aa(lp87
g2
ag3
ag27
ag22
ag6
(g10
S'\xc7r\xca\xd5G@\x95@'
p88
tp89
Rp90
aI0
aa(lp91
g2
ag3
ag4
ag22
ag6
(g10
S'uD\xc5\x90\x84\x85\x96@'
p92
tp93
Rp94
aI1
aa(lp95
g2
ag3
ag4
ag5
ag6
(g10
S'\xf4\xd0\xed\xfd\xcaO\x96@'
p96
tp97
Rp98
aI0
aa(lp99
g2
ag3
ag4
ag5
ag6
(g10
S'\xb7\x83\xa6\xd9\rE\x95@'
p100
tp101
Rp102
aI0
aa(lp103
g2
ag3
ag27
ag22
ag6
(g10
S'\xf0\xa8n"\xa4H\x8f@'
p104
tp105
Rp106
aI0
aa(lp107
g2
ag3
ag27
ag5
ag6
(g10
S'\xdd\xde\xa9\x1b\xa0\xe6\x8e@'
p108
tp109
Rp110
aI0
aa(lp111
g2
ag3
ag17
ag22
ag6
(g10
S'\xf40d0\xdc<\x91@'
p112
tp113
Rp114
aI1
aa(lp115
g2
ag3
ag4
ag22
ag6
(g10
S'+\xa4\xf9\xc0\xff\xc9\x90@'
p116
tp117
Rp118
aI1
aa(lp119
g2
ag3
ag27
ag22
ag6
(g10
S'\xc1)\xaa\xce\x8bT\x93@'
p120
tp121
Rp122
aI1
aa(lp123
g2
ag3
ag17
ag22
ag6
(g10
S'\xc2\xe7\xc0!\x9a\xe1\x92@'
p124
tp125
Rp126
aI1
aa(lp127
g2
ag3
ag17
ag22
ag6
(g10
S'\xc4\x0b\xbe\x9a\xdck\x91@'
p128
tp129
Rp130
aI1
aa(lp131
g2
ag3
ag17
ag22
ag6
(g10
S'\xa4j5@\n\x9f\x8f@'
p132
tp133
Rp134
aI0
aa(lp135
g2
ag3
ag4
ag5
ag6
(g10
S'\xf9\x11"\xbf\xc5\xfa\x94@'
p136
tp137
Rp138
aI1
aa(lp139
g2
ag3
ag27
ag22
ag6
(g10
S'\xea\xa8\xa5\xaa\x02\xe3\x94@'
p140
tp141
Rp142
aI0
aa(lp143
g2
ag3
ag27
ag5
ag6
(g10
S'\x92\x17\xc2\xb4\xa6U\x90@'
p144
tp145
Rp146
aI0
aa(lp147
g2
ag3
ag27
ag5
ag6
(g10
S')\x047\xcc\xde\xbd\x91@'
p148
tp149
Rp150
aI1
aa(lp151
g2
ag3
ag4
ag5
ag6
(g10
S'\xe9\x0b\x9f\x1b9W\x90@'
p152
tp153
Rp154
aI0
aa(lp155
g2
ag3
ag27
ag22
ag6
(g10
S'u\xff\x93\\?Z\x90@'
p156
tp157
Rp158
aI0
aa(lp159
g2
ag3
ag17
ag5
ag6
(g10
S'R\xc90A)\x1f\x96@'
p160
tp161
Rp162
aI0
aa(lp163
g2
ag3
ag27
ag22
ag6
(g10
S'\x07\xc0\x16W\x1c\x1c\x93@'
p164
tp165
Rp166
aI1
aa(lp167
g2
ag3
ag4
ag22
ag6
(g10
S'9\x01\x1b\x08\xfd\x85\x94@'
p168
tp169
Rp170
aI0
aa(lp171
g2
ag3
ag27
ag5
ag6
(g10
S'\xa9\x9d)t\xe5\xa5\x96@'
p172
tp173
Rp174
aI1
aa(lp175
g2
ag3
ag17
ag22
ag6
(g10
S'9\xb3\x01\x94\x1a\xbb\x92@'
p176
tp177
Rp178
aI0
aa(lp179
g2
ag3
ag17
ag5
ag6
(g10
S'\xc8\x1f\xe7g\x04l\x8c@'
p180
tp181
Rp182
aI1
aa(lp183
g2
ag3
ag4
ag22
ag6
(g10
S'\xa6y\x98\xb1\x04\t\x92@'
p184
tp185
Rp186
aI1
aa(lp187
g2
ag3
ag17
ag22
ag6
(g10
S'\x9f8\xad\xcc\x0c\xaf\x90@'
p188
tp189
Rp190
aI1
aa(lp191
g2
ag3
ag17
ag5
ag6
(g10
S'\x90wfo\xc6\x97\x8d@'
p192
tp193
Rp194
aI0
aa(lp195
g2
ag3
ag27
ag22
ag6
(g10
S'\xe3\x1d\xf4v\xb0!\x95@'
p196
tp197
Rp198
aI1
aa(lp199
g2
ag3
ag27
ag22
ag6
(g10
S'/c\xa16I\xce\x92@'
p200
tp201
Rp202
aI0
aa(lp203
g2
ag3
ag17
ag22
ag6
(g10
S'\x88\xe5\xb2b-\x01\x95@'
p204
tp205
Rp206
aI1
aa(lp207
g2
ag3
ag27
ag5
ag6
(g10
S'JK\xd0\xa2*\x16\x97@'
p208
tp209
Rp210
aI0
aa(lp211
g2
ag3
ag27
ag22
ag6
(g10
S'\xc8\xcb,\xba\xc5\xae\x96@'
p212
tp213
Rp214
aI0
aa(lp215
g2
ag3
ag17
ag5
ag6
(g10
S"\xd8\x99k'\xdd\xdd\x91@"
p216
tp217
Rp218
aI1
aa(lp219
g2
ag3
ag17
ag22
ag6
(g10
S'}\x83\xaf\xdb\xe3\x82\x8c@'
p220
tp221
Rp222
aI0
aa(lp223
g2
ag3
ag17
ag5
ag6
(g10
S'\xde|X<1\x19\x92@'
p224
tp225
Rp226
aI0
aa(lp227
g2
ag3
ag4
ag5
ag6
(g10
S'\xeeh\x97L\xb2g\x92@'
p228
tp229
Rp230
aI0
aa(lp231
g2
ag3
ag4
ag5
ag6
(g10
S'\xa2o\xf3\xafr\x85\x96@'
p232
tp233
Rp234
aI0
aa(lp235
g2
ag3
ag4
ag5
ag6
(g10
S'\xc8Z\xf6\xa9\x86k\x95@'
p236
tp237
Rp238
aI1
aa(lp239
g2
ag3
ag17
ag22
ag6
(g10
S'm\x0fm:\t_\x8e@'
p240
tp241
Rp242
aI1
aa(lp243
g2
ag3
ag17
ag22
ag6
(g10
S'\x1a\x14\xbc {E\x8e@'
p244
tp245
Rp246
aI1
aa(lp247
g2
ag3
ag17
ag22
ag6
(g10
S'%N\xf8\x0b\x1c\xff\x95@'
p248
tp249
Rp250
aI1
aa(lp251
g2
ag3
ag17
ag5
ag6
(g10
S'\x117\xc7\x02\xa2\xd9\x90@'
p252
tp253
Rp254
aI0
aa(lp255
g2
ag3
ag17
ag22
ag6
(g10
S'n9\x07\x00yq\x93@'
p256
tp257
Rp258
aI0
aa(lp259
g2
ag3
ag4
ag22
ag6
(g10
S'KH\x9c\x00\x9a\\\x94@'
p260
tp261
Rp262
aI1
aa(lp263
g2
ag3
ag4
ag5
ag6
(g10
S'P\xbcF\xe6\x8f\xaa\x8f@'
p264
tp265
Rp266
aI1
aa(lp267
g2
ag3
ag4
ag22
ag6
(g10
S'A<\x8c#\xc4:\x92@'
p268
tp269
Rp270
aI0
aa(lp271
g2
ag3
ag4
ag22
ag6
(g10
S'$.\x7f\x8a\xae\xc9\x92@'
p272
tp273
Rp274
aI0
aa(lp275
g2
ag3
ag27
ag5
ag6
(g10
S'\xf0\xd4\x98\xdf\xb6\xa0\x95@'
p276
tp277
Rp278
aI1
aa(lp279
g2
ag3
ag27
ag22
ag6
(g10
S'\xeaae\x04\xec:\x90@'
p280
tp281
Rp282
aI0
aa(lp283
g2
ag3
ag27
ag5
ag6
(g10
S'\x87/U\xf7\xf2;\x8d@'
p284
tp285
Rp286
aI1
aa(lp287
g2
ag3
ag27
ag5
ag6
(g10
S"'\xa5\xb0aet\x92@"
p288
tp289
Rp290
aI1
aa(lp291
g2
ag3
ag4
ag5
ag6
(g10
S'\xcak\x820\x0eR\x90@'
p292
tp293
Rp294
aI0
aa(lp295
g2
ag3
ag4
ag22
ag6
(g10
S'\x81` \xa1Sd\x94@'
p296
tp297
Rp298
aI0
aa(lp299
g2
ag3
ag4
ag5
ag6
(g10
S'\x14a\xda\xf8)\x96\x94@'
p300
tp301
Rp302
aI1
aa(lp303
g2
ag3
ag27
ag5
ag6
(g10
S'd0Q\x1a\xed(\x90@'
p304
tp305
Rp306
aI1
aa(lp307
g2
ag3
ag4
ag5
ag6
(g10
S'@\xb4\x07\xf0\xb18\x91@'
p308
tp309
Rp310
aI1
aa(lp311
g2
ag3
ag27
ag22
ag6
(g10
S's\xc5\xd8\xa9\xb1\x11\x8e@'
p312
tp313
Rp314
aI0
aa(lp315
g2
ag3
ag4
ag5
ag6
(g10
S'f\xe4O\xab\x8c\x9d\x91@'
p316
tp317
Rp318
aI0
aa(lp319
g2
ag3
ag17
ag5
ag6
(g10
S'}np\xf2\xa9*\x8d@'
p320
tp321
Rp322
aI0
aa(lp323
g2
ag3
ag4
ag22
ag6
(g10
S'\xf7\xc6\xd3\xad<\\\x94@'
p324
tp325
Rp326
aI1
aa(lp327
g2
ag3
ag4
ag5
ag6
(g10
S"\x84E\x06\xa9\xf1'\x92@"
p328
tp329
Rp330
aI1
aa(lp331
g2
ag3
ag4
ag22
ag6
(g10
S'\r\xa8\x85,\x92y\x96@'
p332
tp333
Rp334
aI1
aa(lp335
g2
ag3
ag17
ag5
ag6
(g10
S'\xa8\xc5\xb3d\x0e\xff\x90@'
p336
tp337
Rp338
aI1
aa(lp339
g2
ag3
ag27
ag22
ag6
(g10
S'\xee\xf5\x8147_\x93@'
p340
tp341
Rp342
aI0
aa(lp343
g2
ag3
ag4
ag22
ag6
(g10
S'(8:\xe1\xf1\xc7\x90@'
p344
tp345
Rp346
aI1
aa(lp347
g2
ag3
ag17
ag5
ag6
(g10
S'H\xbf\xb7]\x1c\x00\x96@'
p348
tp349
Rp350
aI0
aa(lp351
g2
ag3
ag4
ag5
ag6
(g10
S'\x19:\x94D\xef\x1d\x93@'
p352
tp353
Rp354
aI1
aa(lp355
g2
ag3
ag17
ag5
ag6
(g10
S'!\x10\x8b\xc8zf\x96@'
p356
tp357
Rp358
aI0
aa(lp359
g2
ag3
ag4
ag22
ag6
(g10
S'\x80\x7f\xa0\xfd\xc5J\x8f@'
p360
tp361
Rp362
aI0
aa(lp363
g2
ag3
ag4
ag5
ag6
(g10
S'.PS\xa6\x7f\xfb\x95@'
p364
tp365
Rp366
aI1
aa(lp367
g2
ag3
ag27
ag5
ag6
(g10
S'S\xd4{I\xdf\xf6\x93@'
p368
tp369
Rp370
aI1
aa(lp371
g2
ag3
ag17
ag22
ag6
(g10
S'\xa3s\xd9\x15\x01\xa4\x8e@'
p372
tp373
Rp374
aI0
aa(lp375
g2
ag3
ag27
ag22
ag6
(g10
S'bp\x83\x040\xb8\x8e@'
p376
tp377
Rp378
aI0
aa(lp379
g2
ag3
ag17
ag22
ag6
(g10
S'\xa8\xd5\xbdL\xdel\x93@'
p380
tp381
Rp382
aI1
aa(lp383
g2
ag3
ag27
ag5
ag6
(g10
S'v\xad\xeeo\xd6\xb2\x91@'
p384
tp385
Rp386
aI1
aa(lp387
g2
ag3
ag17
ag5
ag6
(g10
S'\xc2c\xa8\xcd\xe2\x87\x91@'
p388
tp389
Rp390
aI1
aa(lp391
g2
ag3
ag4
ag22
ag6
(g10
S'\x00Ei|hi\x91@'
p392
tp393
Rp394
aI0
aa(lp395
g2
ag3
ag4
ag5
ag6
(g10
S'<\x8e[\xdbh \x97@'
p396
tp397
Rp398
aI0
aa(lp399
g2
ag3
ag27
ag5
ag6
(g10
S'(\x08\xfd\x7f5-\x97@'
p400
tp401
Rp402
aI0
aa(lp403
g2
ag3
ag17
ag5
ag6
(g10
S'L#Ll?\x90\x95@'
p404
tp405
Rp406
aI0
aa(lp407
g2
ag3
ag17
ag22
ag6
(g10
S'\x91\xc4\x869\x91\x04\x97@'
p408
tp409
Rp410
aI0
aa(lp411
g2
ag3
ag4
ag22
ag6
(g10
S'E<\x11:\xf7T\x90@'
p412
tp413
Rp414
aI0
aa(lp415
g2
ag3
ag27
ag5
ag6
(g10
S'\xba9I\xf7\xbb?\x90@'
p416
tp417
Rp418
aI0
aa(lp419
g2
ag3
ag17
ag22
ag6
(g10
S'\xbf\xc6\xf2\xb5\xcc\xe5\x8c@'
p420
tp421
Rp422
aI1
aa(lp423
g2
ag3
ag17
ag5
ag6
(g10
S'\x87\x92H\xac$\x88\x91@'
p424
tp425
Rp426
aI0
aa(lp427
g2
ag3
ag17
ag5
ag6
(g10
S'\x80\x0e\x1d\xfd\xf1\xfd\x95@'
p428
tp429
Rp430
aI0
aa(lp431
g2
ag3
ag27
ag22
ag6
(g10
S'\xf0\\h\xe8\x81\x1c\x97@'
p432
tp433
Rp434
aI1
aa(lp435
g2
ag3
ag4
ag5
ag6
(g10
S'hM)\xed\xea\x04\x91@'
p436
tp437
Rp438
aI0
aa(lp439
g2
ag3
ag27
ag5
ag6
(g10
S'?\xfb\xcc\xed\xd4\x0c\x94@'
p440
tp441
Rp442
aI0
aa(lp443
g2
ag3
ag27
ag22
ag6
(g10
S'\xac\x0f\xe4hdv\x90@'
p444
tp445
Rp446
aI0
aa(lp447
g2
ag3
ag4
ag22
ag6
(g10
S'W\xb0\xd1{:\xa6\x92@'
p448
tp449
Rp450
aI0
aa(lp451
g2
ag3
ag4
ag22
ag6
(g10
S'N\xdb\xd7\x0eO\xe9\x91@'
p452
tp453
Rp454
aI0
aa(lp455
g2
ag3
ag17
ag22
ag6
(g10
S'\xe6\xc8"\xb6{\x99\x95@'
p456
tp457
Rp458
aI0
aa(lp459
g2
ag3
ag4
ag5
ag6
(g10
S'\xba\xe0\x8b=^\xfd\x94@'
p460
tp461
Rp462
aI0
aa(lp463
g2
ag3
ag17
ag22
ag6
(g10
S'\xce\xa6\xd9\x99\x1dQ\x96@'
p464
tp465
Rp466
aI0
aa(lp467
g2
ag3
ag17
ag22
ag6
(g10
S'\xaa\xfbc-\x15p\x95@'
p468
tp469
Rp470
aI1
aa(lp471
g2
ag3
ag4
ag22
ag6
(g10
S'C/\x8bI\xcf\x18\x96@'
p472
tp473
Rp474
aI0
aa(lp475
g2
ag3
ag17
ag22
ag6
(g10
S'\xb6\xeaP\xb6\xf1\xf1\x94@'
p476
tp477
Rp478
aI1
aa(lp479
g2
ag3
ag27
ag5
ag6
(g10
S'Y\xce\xab\xff\xc7\xc5\x8e@'
p480
tp481
Rp482
aI1
aa(lp483
g2
ag3
ag4
ag5
ag6
(g10
S'\xbb\x15>\xd8[\x9f\x8f@'
p484
tp485
Rp486
aI1
aa(lp487
g2
ag3
ag4
ag5
ag6
(g10
S'Dr\x98P\xb7T\x8d@'
p488
tp489
Rp490
aI0
aa(lp491
g2
ag3
ag27
ag22
ag6
(g10
S'\xe5\xd9-\xb5\xeb\x8e\x90@'
p492
tp493
Rp494
aI0
aa(lp495
g2
ag3
ag17
ag22
ag6
(g10
S'\xff4u\xd0\xa8\xb7\x8d@'
p496
tp497
Rp498
aI0
aa(lp499
g2
ag3
ag27
ag5
ag6
(g10
S'\xd8D\x8dfh\xab\x95@'
p500
tp501
Rp502
aI1
aa(lp503
g2
ag3
ag17
ag5
ag6
(g10
S'\x05,\x87\x8e\x83{\x94@'
p504
tp505
Rp506
aI0
aa(lp507
g2
ag3
ag4
ag5
ag6
(g10
S'\xa1\xbe\xc9x\xe1\xfd\x94@'
p508
tp509
Rp510
aI1
aa(lp511
g2
ag3
ag4
ag5
ag6
(g10
S'"\xd4\';Hi\x95@'
p512
tp513
Rp514
aI1
aa(lp515
g2
ag3
ag27
ag22
ag6
(g10
S'\x06Q\x05{\x1b\x9a\x94@'
p516
tp517
Rp518
aI0
aa(lp519
g2
ag3
ag4
ag5
ag6
(g10
S'\xd6\xb6\x13\xf3\x89\xbe\x93@'
p520
tp521
Rp522
aI0
aa(lp523
g2
ag3
ag4
ag5
ag6
(g10
S'D\xc7z\xd2\xe9\x98\x92@'
p524
tp525
Rp526
aI1
aa(lp527
g2
ag3
ag4
ag22
ag6
(g10
S'^\xb3-\xdas\x00\x94@'
p528
tp529
Rp530
aI1
aa(lp531
g2
ag3
ag4
ag22
ag6
(g10
S'\xef\x1ab\n9s\x93@'
p532
tp533
Rp534
aI0
aa(lp535
g2
ag3
ag17
ag5
ag6
(g10
S'x\xeb\x13\xf8/\x7f\x92@'
p536
tp537
Rp538
aI1
aa(lp539
g2
ag3
ag17
ag5
ag6
(g10
S'\xab\x96/|\xf7\x90\x8c@'
p540
tp541
Rp542
aI0
aa(lp543
g2
ag3
ag4
ag5
ag6
(g10
S'\x18\xb7\x0b\x02\x90\xa5\x90@'
p544
tp545
Rp546
aI1
aa(lp547
g2
ag3
ag17
ag22
ag6
(g10
S'\x15\xc2\x9a\xfc\x93\xb3\x96@'
p548
tp549
Rp550
aI1
aa(lp551
g2
ag3
ag27
ag22
ag6
(g10
S'o\xee$\x98\x13\xb9\x96@'
p552
tp553
Rp554
aI1
aa(lp555
g2
ag3
ag17
ag5
ag6
(g10
S'x\xa07s0\x1c\x95@'
p556
tp557
Rp558
aI1
aa(lp559
g2
ag3
ag27
ag5
ag6
(g10
S'\xba\xde\x8b\x9dw\xda\x91@'
p560
tp561
Rp562
aI1
aa(lp563
g2
ag3
ag17
ag22
ag6
(g10
S'\xf5\xcc\xb9\xb8"\xbd\x91@'
p564
tp565
Rp566
aI1
aa(lp567
g2
ag3
ag17
ag22
ag6
(g10
S'\xafT\xdc\x06\x0f\x91\x95@'
p568
tp569
Rp570
aI1
aa(lp571
g2
ag3
ag17
ag22
ag6
(g10
S'\x99\xaa\xaao\xc4\xf9\x95@'
p572
tp573
Rp574
aI0
aa(lp575
g2
ag3
ag27
ag22
ag6
(g10
S"\xb6\x1a\xa1\xb3\xf6'\x93@"
p576
tp577
Rp578
aI0
aa(lp579
g2
ag3
ag27
ag5
ag6
(g10
S'\x7f2\x07\xc9\x06\xca\x94@'
p580
tp581
Rp582
aI1
aa(lp583
g2
ag3
ag4
ag22
ag6
(g10
S'\xadB\x9a\xeedg\x90@'
p584
tp585
Rp586
aI0
aa(lp587
g2
ag3
ag27
ag22
ag6
(g10
S'P\x82\xd3\x7fwU\x96@'
p588
tp589
Rp590
aI0
aa(lp591
g2
ag3
ag27
ag5
ag6
(g10
S'\x04\xe2\xb2\xb6\n"\x90@'
p592
tp593
Rp594
aI1
aa(lp595
g2
ag3
ag27
ag22
ag6
(g10
S'T\xdfa\xbc\xab\xe7\x93@'
p596
tp597
Rp598
aI0
aa(lp599
g2
ag3
ag27
ag5
ag6
(g10
S'T\x05\xe0<#\xe5\x94@'
p600
tp601
Rp602
aI1
aa(lp603
g2
ag3
ag17
ag5
ag6
(g10
S'\x92\x95\xa6\xe3\xe1~\x90@'
p604
tp605
Rp606
aI1
aa(lp607
g2
ag3
ag4
ag22
ag6
(g10
S'~\xb4\xde\xf5\x9e\x0b\x96@'
p608
tp609
Rp610
aI0
aa(lp611
g2
ag3
ag27
ag22
ag6
(g10
S'\xd8*\x90\xa2\xa9\xad\x8c@'
p612
tp613
Rp614
aI0
aa(lp615
g2
ag3
ag17
ag22
ag6
(g10
S'P$\xc8\xbcH\x03\x97@'
p616
tp617
Rp618
aI0
aa(lp619
g2
ag3
ag17
ag5
ag6
(g10
S'\xa1wJ\x857\x8a\x8c@'
p620
tp621
Rp622
aI1
aa(lp623
g2
ag3
ag27
ag22
ag6
(g10
S'a\xcb\xf5\xcdO\\\x90@'
p624
tp625
Rp626
aI0
aa(lp627
g2
ag3
ag27
ag5
ag6
(g10
S'-\x0b\xa6u\xde\x94\x94@'
p628
tp629
Rp630
aI1
aa(lp631
g2
ag3
ag27
ag5
ag6
(g10
S'f\xe7Y\x9d\xc0\x1d\x97@'
p632
tp633
Rp634
aI0
aa(lp635
g2
ag3
ag27
ag5
ag6
(g10
S'\xcb\xc0%\xd2\x8f\xca\x93@'
p636
tp637
Rp638
aI1
aa(lp639
g2
ag3
ag4
ag22
ag6
(g10
S'\x1e<\xbc\x9f\xa8b\x97@'
p640
tp641
Rp642
aI1
aa(lp643
g2
ag3
ag17
ag22
ag6
(g10
S'\x8c]\xc9\xbb77\x96@'
p644
tp645
Rp646
aI0
aa(lp647
g2
ag3
ag4
ag5
ag6
(g10
S'\x90\xc2\xd6N|\x12\x95@'
p648
tp649
Rp650
aI0
aa(lp651
g2
ag3
ag27
ag5
ag6
(g10
S'\xcc\xff.\xde\x9d\xe2\x95@'
p652
tp653
Rp654
aI1
aa(lp655
g2
ag3
ag17
ag22
ag6
(g10
S'\xe8L\x9f\xe5\xf4i\x97@'
p656
tp657
Rp658
aI1
aa(lp659
g2
ag3
ag27
ag22
ag6
(g10
S'(/\xaa\xdd\xfd+\x91@'
p660
tp661
Rp662
aI0
aa(lp663
g2
ag3
ag27
ag22
ag6
(g10
S'w\xc2\x1d\x8c\x12B\x90@'
p664
tp665
Rp666
aI1
aa(lp667
g2
ag3
ag4
ag5
ag6
(g10
S'\xdcj\xa9\xecY\xa9\x90@'
p668
tp669
Rp670
aI0
aa(lp671
g2
ag3
ag27
ag22
ag6
(g10
S"m\x97\x98\xc6\xcb'\x91@"
p672
tp673
Rp674
aI1
aa(lp675
g2
ag3
ag27
ag22
ag6
(g10
S'\xa2\x90f\x97\xda7\x96@'
p676
tp677
Rp678
aI1
aa(lp679
g2
ag3
ag17
ag22
ag6
(g10
S'[J~g\xca\xaa\x95@'
p680
tp681
Rp682
aI1
aa(lp683
g2
ag3
ag4
ag5
ag6
(g10
S'\x13\xecz\xd5\xf51\x97@'
p684
tp685
Rp686
aI1
aa.