(lp0
(lp1
S'blocked'
p2
aS'long'
p3
aS'face'
p4
aS'present'
p5
acnumpy.core.multiarray
scalar
p6
(cnumpy
dtype
p7
(S'f8'
p8
I0
I1
tp9
Rp10
(I3
S'<'
p11
NNNI-1
I-1
I0
tp12
bS't\xf2\xaa\x8e\x93\xc5\x90@'
p13
tp14
Rp15
aI0
aa(lp16
g2
ag3
aS'letter'
p17
ag5
ag6
(g10
S'B\n\xc8;v\xb3\x96@'
p18
tp19
Rp20
aI0
aa(lp21
g2
ag3
aS'house'
p22
aS'absent'
p23
ag6
(g10
S'Z\xa0\x9aK]#\x97@'
p24
tp25
Rp26
aI1
aa(lp27
g2
ag3
ag4
ag23
ag6
(g10
S'\xb5[|\xd7\xb9h\x8d@'
p28
tp29
Rp30
aI1
aa(lp31
g2
ag3
ag22
ag5
ag6
(g10
S'\x91--\xdf\xe5\xde\x96@'
p32
tp33
Rp34
aI0
aa(lp35
g2
ag3
ag4
ag5
ag6
(g10
S'\xa1\xdf3\x041Z\x92@'
p36
tp37
Rp38
aI1
aa(lp39
g2
ag3
ag17
ag23
ag6
(g10
S' \xb0\xc2\xfe\x99d\x96@'
p40
tp41
Rp42
aI0
aa(lp43
g2
ag3
ag4
ag5
ag6
(g10
S'\x90\xe7\r\xb0oR\x92@'
p44
tp45
Rp46
aI1
aa(lp47
g2
ag3
ag4
ag23
ag6
(g10
S'\x94\xf2F\xd0FJ\x90@'
p48
tp49
Rp50
aI1
aa(lp51
g2
ag3
ag17
ag5
ag6
(g10
S'\x1d^r\x1b\x10o\x95@'
p52
tp53
Rp54
aI1
aa(lp55
g2
ag3
ag22
ag5
ag6
(g10
S'$\xb3\xf8|\x1f\x9a\x92@'
p56
tp57
Rp58
aI0
aa(lp59
g2
ag3
ag22
ag23
ag6
(g10
S'\x15\xa9\x7f\x00t\xe9\x8e@'
p60
tp61
Rp62
aI1
aa(lp63
g2
ag3
ag17
ag23
ag6
(g10
S'\\0*\x1d*\n\x94@'
p64
tp65
Rp66
aI0
aa(lp67
g2
ag3
ag17
ag5
ag6
(g10
S'\xa4\x82\xaf4\xd6\xdf\x8e@'
p68
tp69
Rp70
aI0
aa(lp71
g2
ag3
ag22
ag23
ag6
(g10
S'0\xd8]^/K\x91@'
p72
tp73
Rp74
aI1
aa(lp75
g2
ag3
ag17
ag5
ag6
(g10
S'h\xbfoR:9\x8c@'
p76
tp77
Rp78
aI0
aa(lp79
g2
ag3
ag17
ag23
ag6
(g10
S'\xfb\x05\x80cn\xec\x94@'
p80
tp81
Rp82
aI0
aa(lp83
g2
ag3
ag22
ag23
ag6
(g10
S'\x18o\\[\xa3\xff\x91@'
p84
tp85
Rp86
aI1
aa(lp87
g2
ag3
ag22
ag5
ag6
(g10
S'\xfc\xd4@\x0fbO\x95@'
p88
tp89
Rp90
aI0
aa(lp91
g2
ag3
ag17
ag23
ag6
(g10
S'\xe3"B\x11\xb0\xb4\x93@'
p92
tp93
Rp94
aI1
aa(lp95
g2
ag3
ag22
ag5
ag6
(g10
S'a\x06\xfb\x1bC0\x97@'
p96
tp97
Rp98
aI1
aa(lp99
g2
ag3
ag17
ag23
ag6
(g10
S'8\xcf\x89+w\x92\x94@'
p100
tp101
Rp102
aI1
aa(lp103
g2
ag3
ag17
ag5
ag6
(g10
S'\x90\x05\xb9LF\x9e\x94@'
p104
tp105
Rp106
aI0
aa(lp107
g2
ag3
ag22
ag5
ag6
(g10
S'\x83\x1a\xaf\x18w\x8b\x90@'
p108
tp109
Rp110
aI0
aa(lp111
g2
ag3
ag17
ag5
ag6
(g10
S'\xea#4\xbd\xc7\x08\x97@'
p112
tp113
Rp114
aI1
aa(lp115
g2
ag3
ag17
ag5
ag6
(g10
S'\xe9T\x18C\x8a8\x91@'
p116
tp117
Rp118
aI0
aa(lp119
g2
ag3
ag22
ag23
ag6
(g10
S'\xc9\xb7PQ)O\x96@'
p120
tp121
Rp122
aI0
aa(lp123
g2
ag3
ag17
ag5
ag6
(g10
S'\xdd>{p4\x01\x91@'
p124
tp125
Rp126
aI1
aa(lp127
g2
ag3
ag4
ag23
ag6
(g10
S'",(6\xa2\x02\x90@'
p128
tp129
Rp130
aI0
aa(lp131
g2
ag3
ag17
ag5
ag6
(g10
S'\xe3\xdf@\xd5J\x8d\x95@'
p132
tp133
Rp134
aI0
aa(lp135
g2
ag3
ag17
ag5
ag6
(g10
S'\xe1\xa9-\xce{r\x91@'
p136
tp137
Rp138
aI0
aa(lp139
g2
ag3
ag4
ag5
ag6
(g10
S'T\xe2,iYm\x97@'
p140
tp141
Rp142
aI0
aa(lp143
g2
ag3
ag22
ag5
ag6
(g10
S'>\x9e\xa1pk\xfd\x8d@'
p144
tp145
Rp146
aI1
aa(lp147
g2
ag3
ag4
ag23
ag6
(g10
S'2v\xae\x1afl\x93@'
p148
tp149
Rp150
aI0
aa(lp151
g2
ag3
ag22
ag5
ag6
(g10
S'\x07\x8e\xeay\xc7R\x8d@'
p152
tp153
Rp154
aI0
aa(lp155
g2
ag3
ag17
ag5
ag6
(g10
S'\x98b\xe6jq\x9e\x92@'
p156
tp157
Rp158
aI0
aa(lp159
g2
ag3
ag17
ag5
ag6
(g10
S'q,\\\xcfu]\x93@'
p160
tp161
Rp162
aI1
aa(lp163
g2
ag3
ag22
ag23
ag6
(g10
S'\x066\xc4\r\xa41\x91@'
p164
tp165
Rp166
aI1
aa(lp167
g2
ag3
ag4
ag23
ag6
(g10
S'\x96\x8d\xf4_6A\x97@'
p168
tp169
Rp170
aI1
aa(lp171
g2
ag3
ag22
ag5
ag6
(g10
S'j\t\xd4\xaa3o\x97@'
p172
tp173
Rp174
aI0
aa(lp175
g2
ag3
ag22
ag5
ag6
(g10
S' \xf6*\xd1\xc5\x8b\x92@'
p176
tp177
Rp178
aI1
aa(lp179
g2
ag3
ag17
ag5
ag6
(g10
S'\xc4\xcf,\x93\xad<\x97@'
p180
tp181
Rp182
aI1
aa(lp183
g2
ag3
ag22
ag23
ag6
(g10
S',\x9bT\xed\x14\x1f\x90@'
p184
tp185
Rp186
aI1
aa(lp187
g2
ag3
ag22
ag5
ag6
(g10
S'\xe6&n,*\xa9\x91@'
p188
tp189
Rp190
aI1
aa(lp191
g2
ag3
ag4
ag5
ag6
(g10
S'\xa3\xb7k\xebs\xe3\x93@'
p192
tp193
Rp194
aI1
aa(lp195
g2
ag3
ag4
ag23
ag6
(g10
S'\x93{\xad\xcf\xe7\x86\x94@'
p196
tp197
Rp198
aI1
aa(lp199
g2
ag3
ag17
ag5
ag6
(g10
S'\xe9,:)\x063\x8d@'
p200
tp201
Rp202
aI1
aa(lp203
g2
ag3
ag4
ag23
ag6
(g10
S'F\xdd\xba\x85\xfaE\x97@'
p204
tp205
Rp206
aI1
aa(lp207
g2
ag3
ag17
ag5
ag6
(g10
S'\x7f\x92\xc9\xf8\r\x9e\x8f@'
p208
tp209
Rp210
aI1
aa(lp211
g2
ag3
ag17
ag5
ag6
(g10
S'fr8\xea~W\x92@'
p212
tp213
Rp214
aI1
aa(lp215
g2
ag3
ag17
ag23
ag6
(g10
S'\x1bt\x9c\xcaW\x1a\x90@'
p216
tp217
Rp218
aI1
aa(lp219
g2
ag3
ag22
ag5
ag6
(g10
S'Q\xbe\xc1\x90W:\x97@'
p220
tp221
Rp222
aI0
aa(lp223
g2
ag3
ag22
ag5
ag6
(g10
S'\xe3i\x95\x99\xe9\xc8\x91@'
p224
tp225
Rp226
aI0
aa(lp227
g2
ag3
ag4
ag5
ag6
(g10
S'3i\x9e\xe6\x97\x08\x93@'
p228
tp229
Rp230
aI1
aa(lp231
g2
ag3
ag22
ag5
ag6
(g10
S'\xdeG.\xbf\xc6\x80\x95@'
p232
tp233
Rp234
aI1
aa(lp235
g2
ag3
ag4
ag23
ag6
(g10
S'\x06u\xa0R\x8e/\x8d@'
p236
tp237
Rp238
aI1
aa(lp239
g2
ag3
ag22
ag5
ag6
(g10
S'\xc46\xa6n\x1d\xe8\x94@'
p240
tp241
Rp242
aI1
aa(lp243
g2
ag3
ag22
ag23
ag6
(g10
S'\xd8\x8d\xa4\xf7\xeah\x91@'
p244
tp245
Rp246
aI1
aa(lp247
g2
ag3
ag22
ag23
ag6
(g10
S'\xf81\x9eTb?\x95@'
p248
tp249
Rp250
aI0
aa(lp251
g2
ag3
ag4
ag23
ag6
(g10
S'\x16\xcc\x8d\xdbl\x11\x94@'
p252
tp253
Rp254
aI0
aa(lp255
g2
ag3
ag4
ag23
ag6
(g10
S'\xe5\xfe\xa5p\\\x1b\x8d@'
p256
tp257
Rp258
aI0
aa(lp259
g2
ag3
ag17
ag5
ag6
(g10
S'h\r\xf3M\xc4B\x91@'
p260
tp261
Rp262
aI0
aa(lp263
g2
ag3
ag4
ag23
ag6
(g10
S'\xae\x00u\xdc$\x97\x92@'
p264
tp265
Rp266
aI1
aa(lp267
g2
ag3
ag22
ag23
ag6
(g10
S'j\x0fB\xde\x89\xdc\x8d@'
p268
tp269
Rp270
aI1
aa(lp271
g2
ag3
ag4
ag23
ag6
(g10
S'\x1ap#\xfb\xe0\xca\x96@'
p272
tp273
Rp274
aI0
aa(lp275
g2
ag3
ag22
ag5
ag6
(g10
S'\xcf\r\x18\xa1\xaa\xe1\x90@'
p276
tp277
Rp278
aI0
aa(lp279
g2
ag3
ag17
ag23
ag6
(g10
S'\x8a\xe2#\x14\xc3\xa3\x96@'
p280
tp281
Rp282
aI1
aa(lp283
g2
ag3
ag17
ag23
ag6
(g10
S'\x9f\xc8q\x86\xe0\xb8\x96@'
p284
tp285
Rp286
aI1
aa(lp287
g2
ag3
ag4
ag5
ag6
(g10
S'\xe7f\xe0\x97\x82^\x94@'
p288
tp289
Rp290
aI1
aa(lp291
g2
ag3
ag17
ag23
ag6
(g10
S'\x9d\xed"\x13\x0e\x95\x94@'
p292
tp293
Rp294
aI1
aa(lp295
g2
ag3
ag22
ag5
ag6
(g10
S'y\xa3\x933D\x98\x96@'
p296
tp297
Rp298
aI1
aa(lp299
g2
ag3
ag4
ag5
ag6
(g10
S'\xed\xdfIGN8\x94@'
p300
tp301
Rp302
aI0
aa(lp303
g2
ag3
ag17
ag23
ag6
(g10
S'\xca\xc0s\xb93\xd3\x96@'
p304
tp305
Rp306
aI1
aa(lp307
g2
ag3
ag17
ag23
ag6
(g10
S'%C\xd5\r\xd5\x1e\x96@'
p308
tp309
Rp310
aI0
aa(lp311
g2
ag3
ag17
ag5
ag6
(g10
S'\x02\xe8\x15b\xe7f\x95@'
p312
tp313
Rp314
aI0
aa(lp315
g2
ag3
ag22
ag23
ag6
(g10
S'`\xaea\xbbY\xc7\x8c@'
p316
tp317
Rp318
aI0
aa(lp319
g2
ag3
ag4
ag5
ag6
(g10
S'.\xa0\xa4\xf8A\xd6\x92@'
p320
tp321
Rp322
aI0
aa(lp323
g2
ag3
ag4
ag5
ag6
(g10
S"\xbf\xe4\xc9\xb6'g\x95@"
p324
tp325
Rp326
aI1
aa(lp327
g2
ag3
ag4
ag5
ag6
(g10
S'\xaa\x93R\x053\xb0\x92@'
p328
tp329
Rp330
aI1
aa(lp331
g2
ag3
ag17
ag23
ag6
(g10
S"w'\x11\xd5\x0e\x13\x93@"
p332
tp333
Rp334
aI0
aa(lp335
g2
ag3
ag22
ag5
ag6
(g10
S'\xce\x14\xbb\x02\xbf\x92\x92@'
p336
tp337
Rp338
aI0
aa(lp339
g2
ag3
ag4
ag5
ag6
(g10
S',u\x1e_Z$\x94@'
p340
tp341
Rp342
aI1
aa(lp343
g2
ag3
ag22
ag5
ag6
(g10
S'\xf0f\x15\xdeD6\x93@'
p344
tp345
Rp346
aI0
aa(lp347
g2
ag3
ag4
ag23
ag6
(g10
S'\xb5sB\xdf\xda\x91\x91@'
p348
tp349
Rp350
aI1
aa(lp351
g2
ag3
ag4
ag5
ag6
(g10
S'\r;\x99\xf8\x96\x9f\x95@'
p352
tp353
Rp354
aI0
aa(lp355
g2
ag3
ag22
ag23
ag6
(g10
S'\xb8.\x8d?\x839\x94@'
p356
tp357
Rp358
aI0
aa(lp359
g2
ag3
ag4
ag5
ag6
(g10
S'\xd0\xebf\xc5\x0b`\x95@'
p360
tp361
Rp362
aI0
aa(lp363
g2
ag3
ag22
ag23
ag6
(g10
S'\x13y<\xc7U\x7f\x8d@'
p364
tp365
Rp366
aI1
aa(lp367
g2
ag3
ag22
ag5
ag6
(g10
S'\x93\xad\xa8?g\xd9\x92@'
p368
tp369
Rp370
aI0
aa(lp371
g2
ag3
ag17
ag23
ag6
(g10
S'\xc8\xc5\x8e{v\xec\x8f@'
p372
tp373
Rp374
aI1
aa(lp375
g2
ag3
ag4
ag23
ag6
(g10
S'\xd2N\x90\xa6[\x10\x92@'
p376
tp377
Rp378
aI0
aa(lp379
g2
ag3
ag22
ag23
ag6
(g10
S'Y\xfb\xafT\xdf\x91\x91@'
p380
tp381
Rp382
aI0
aa(lp383
g2
ag3
ag17
ag23
ag6
(g10
S'\xa8g\x8eah\x8c\x92@'
p384
tp385
Rp386
aI0
aa(lp387
g2
ag3
ag17
ag5
ag6
(g10
S'L8L$\x9eh\x90@'
p388
tp389
Rp390
aI1
aa(lp391
g2
ag3
ag22
ag23
ag6
(g10
S'\x86\xd2{Z\xa6\xdb\x8e@'
p392
tp393
Rp394
aI1
aa(lp395
g2
ag3
ag17
ag5
ag6
(g10
S'IATY\xac\xc0\x90@'
p396
tp397
Rp398
aI1
aa(lp399
g2
ag3
ag22
ag23
ag6
(g10
S'\xde\x9f\xbb\xd7\xcbd\x96@'
p400
tp401
Rp402
aI0
aa(lp403
g2
ag3
ag22
ag23
ag6
(g10
S'"rOk\xcc[\x97@'
p404
tp405
Rp406
aI1
aa(lp407
g2
ag3
ag4
ag23
ag6
(g10
S'{(\xb5\x93<=\x91@'
p408
tp409
Rp410
aI1
aa(lp411
g2
ag3
ag4
ag23
ag6
(g10
S'?\x84\x8a;\xdd\xd5\x92@'
p412
tp413
Rp414
aI1
aa(lp415
g2
ag3
ag4
ag5
ag6
(g10
S'7@\xb5\xf5,\xb3\x94@'
p416
tp417
Rp418
aI0
aa(lp419
g2
ag3
ag4
ag5
ag6
(g10
S'B,]W\xfb,\x94@'
p420
tp421
Rp422
aI0
aa(lp423
g2
ag3
ag17
ag5
ag6
(g10
S'_?a\xa5J\xf4\x90@'
p424
tp425
Rp426
aI1
aa(lp427
g2
ag3
ag17
ag23
ag6
(g10
S'1{^t\xc5k\x95@'
p428
tp429
Rp430
aI1
aa(lp431
g2
ag3
ag4
ag5
ag6
(g10
S'z\x03\xe9m"6\x93@'
p432
tp433
Rp434
aI0
aa(lp435
g2
ag3
ag22
ag23
ag6
(g10
S'\xcf\x9cy\xb00\xaf\x91@'
p436
tp437
Rp438
aI0
aa(lp439
g2
ag3
ag4
ag5
ag6
(g10
S']\xccX3\xee\xcc\x8c@'
p440
tp441
Rp442
aI1
aa(lp443
g2
ag3
ag4
ag5
ag6
(g10
S'\x13\x8ft\xe2\xfb\xa2\x94@'
p444
tp445
Rp446
aI1
aa(lp447
g2
ag3
ag17
ag23
ag6
(g10
S'6\xc2D0u\x1e\x8e@'
p448
tp449
Rp450
aI1
aa(lp451
g2
ag3
ag22
ag5
ag6
(g10
S"u\x87\xef\x99'I\x97@"
p452
tp453
Rp454
aI0
aa(lp455
g2
ag3
ag22
ag5
ag6
(g10
S'\xd6\x9c\xe46:<\x96@'
p456
tp457
Rp458
aI1
aa(lp459
g2
ag3
ag4
ag23
ag6
(g10
S'\xc1\xb7\xaa\xdc\x9bD\x8f@'
p460
tp461
Rp462
aI0
aa(lp463
g2
ag3
ag22
ag23
ag6
(g10
S'H\xee8U\xec,\x94@'
p464
tp465
Rp466
aI0
aa(lp467
g2
ag3
ag17
ag5
ag6
(g10
S'\x1f\x8dp\xf9B\x04\x8d@'
p468
tp469
Rp470
aI0
aa(lp471
g2
ag3
ag17
ag5
ag6
(g10
S'\xe0\x17\x93O\x90\x04\x97@'
p472
tp473
Rp474
aI0
aa(lp475
g2
ag3
ag4
ag23
ag6
(g10
S'\xe1\xf0bE\xff.\x96@'
p476
tp477
Rp478
aI0
aa(lp479
g2
ag3
ag17
ag5
ag6
(g10
S'\x12\x1c\xfeAF\xa9\x93@'
p480
tp481
Rp482
aI1
aa(lp483
g2
ag3
ag17
ag23
ag6
(g10
S'%\xacJ\x1e\xafk\x8c@'
p484
tp485
Rp486
aI1
aa(lp487
g2
ag3
ag4
ag23
ag6
(g10
S'\x8f\xc9\x06\x14\x04\x86\x8f@'
p488
tp489
Rp490
aI1
aa(lp491
g2
ag3
ag22
ag5
ag6
(g10
S'`\x14=\x81U\xc9\x96@'
p492
tp493
Rp494
aI1
aa(lp495
g2
ag3
ag4
ag23
ag6
(g10
S'J\x1d\xcf\xbaQ\xb7\x93@'
p496
tp497
Rp498
aI0
aa(lp499
g2
ag3
ag4
ag5
ag6
(g10
S't\x03\xda\xc9\xe5\xcc\x93@'
p500
tp501
Rp502
aI1
aa(lp503
g2
ag3
ag17
ag5
ag6
(g10
S'h>\xafWe\xca\x92@'
p504
tp505
Rp506
aI1
aa(lp507
g2
ag3
ag17
ag5
ag6
(g10
S"\x92\xb0'\xb4V\xb0\x90@"
p508
tp509
Rp510
aI1
aa(lp511
g2
ag3
ag17
ag23
ag6
(g10
S'\xedF\xda\x8d{M\x95@'
p512
tp513
Rp514
aI1
aa(lp515
g2
ag3
ag4
ag23
ag6
(g10
S'\xb8c\r\x14\x90g\x95@'
p516
tp517
Rp518
aI0
aa(lp519
g2
ag3
ag22
ag5
ag6
(g10
S'\xd2*X\x03\xe4,\x90@'
p520
tp521
Rp522
aI0
aa(lp523
g2
ag3
ag17
ag23
ag6
(g10
S'/\xc4\x95_\xadM\x91@'
p524
tp525
Rp526
aI1
aa(lp527
g2
ag3
ag22
ag5
ag6
(g10
S'f^\x82\x9bE\x90\x90@'
p528
tp529
Rp530
aI1
aa(lp531
g2
ag3
ag22
ag5
ag6
(g10
S'+E\x12\xab=\x19\x91@'
p532
tp533
Rp534
aI0
aa(lp535
g2
ag3
ag17
ag23
ag6
(g10
S'\xacQ\x81\x93\x80N\x95@'
p536
tp537
Rp538
aI0
aa(lp539
g2
ag3
ag4
ag23
ag6
(g10
S'N\x88\xad\xfd\xbf#\x94@'
p540
tp541
Rp542
aI1
aa(lp543
g2
ag3
ag17
ag5
ag6
(g10
S'\xd0\xd8\x16\xb5\x8a\xe6\x93@'
p544
tp545
Rp546
aI1
aa(lp547
g2
ag3
ag4
ag5
ag6
(g10
S'\xa86\x91\xde:\x95\x95@'
p548
tp549
Rp550
aI1
aa(lp551
g2
ag3
ag22
ag5
ag6
(g10
S'\xd0}"\xf2\t[\x8d@'
p552
tp553
Rp554
aI0
aa(lp555
g2
ag3
ag17
ag23
ag6
(g10
S'\x8d\xec\xcc5^\xa6\x95@'
p556
tp557
Rp558
aI0
aa(lp559
g2
ag3
ag4
ag5
ag6
(g10
S'\xe5\t\xe0v\xa5\x05\x94@'
p560
tp561
Rp562
aI1
aa(lp563
g2
ag3
ag22
ag5
ag6
(g10
S'js^z\x9a9\x8e@'
p564
tp565
Rp566
aI0
aa(lp567
g2
ag3
ag17
ag5
ag6
(g10
S'8\xb7v\xaa]\xc3\x8c@'
p568
tp569
Rp570
aI0
aa(lp571
g2
ag3
ag17
ag23
ag6
(g10
S'\xa9\xcc\xb5\xfeN\x80\x8d@'
p572
tp573
Rp574
aI0
aa(lp575
g2
ag3
ag22
ag5
ag6
(g10
S'\xaa\x12\xff\x17C\x18\x94@'
p576
tp577
Rp578
aI1
aa(lp579
g2
ag3
ag4
ag5
ag6
(g10
S'm/\x96\x918\xdb\x93@'
p580
tp581
Rp582
aI0
aa(lp583
g2
ag3
ag4
ag23
ag6
(g10
S'\x12Y8m&P\x93@'
p584
tp585
Rp586
aI1
aa(lp587
g2
ag3
ag22
ag23
ag6
(g10
S'\xee\x00\xd87\xd9\xe4\x91@'
p588
tp589
Rp590
aI0
aa(lp591
g2
ag3
ag4
ag5
ag6
(g10
S'5\xb6^s\xed\xd1\x92@'
p592
tp593
Rp594
aI1
aa(lp595
g2
ag3
ag22
ag5
ag6
(g10
S'y\x1a#E\xf6Z\x8e@'
p596
tp597
Rp598
aI0
aa(lp599
g2
ag3
ag4
ag5
ag6
(g10
S'W\xb5\xaf\xb5U\x90\x94@'
p600
tp601
Rp602
aI1
aa(lp603
g2
ag3
ag22
ag23
ag6
(g10
S'F\xaf \xce\xded\x8c@'
p604
tp605
Rp606
aI1
aa(lp607
g2
ag3
ag22
ag5
ag6
(g10
S':V\x99g=h\x8d@'
p608
tp609
Rp610
aI0
aa(lp611
g2
ag3
ag17
ag23
ag6
(g10
S'VY-\xf19K\x92@'
p612
tp613
Rp614
aI0
aa(lp615
g2
ag3
ag4
ag5
ag6
(g10
S'\x92\xfd\xd2\x88d\x96\x8c@'
p616
tp617
Rp618
aI1
aa(lp619
g2
ag3
ag17
ag23
ag6
(g10
S'\xee\xcbFwMZ\x97@'
p620
tp621
Rp622
aI0
aa(lp623
g2
ag3
ag4
ag23
ag6
(g10
S'\xb5\xfe\x7fMN\xb3\x91@'
p624
tp625
Rp626
aI0
aa(lp627
g2
ag3
ag17
ag23
ag6
(g10
S'\x9c\xe9\xf8\x0c\x01\x13\x8e@'
p628
tp629
Rp630
aI0
aa(lp631
g2
ag3
ag22
ag5
ag6
(g10
S'=\r\x00\xb8U\x05\x92@'
p632
tp633
Rp634
aI1
aa(lp635
g2
ag3
ag22
ag5
ag6
(g10
S'\x98\x8e\xdc\xfc\xddT\x8e@'
p636
tp637
Rp638
aI0
aa(lp639
g2
ag3
ag4
ag5
ag6
(g10
S'\x94n\x0fK\xf7P\x91@'
p640
tp641
Rp642
aI1
aa(lp643
g2
ag3
ag4
ag23
ag6
(g10
S'\xd8r\x96v\xd0\xf9\x94@'
p644
tp645
Rp646
aI0
aa(lp647
g2
ag3
ag4
ag5
ag6
(g10
S'!E\xd9{\xe0\xa0\x8d@'
p648
tp649
Rp650
aI0
aa(lp651
g2
ag3
ag4
ag5
ag6
(g10
S'\x1e&\x0e\x17-\x82\x8e@'
p652
tp653
Rp654
aI0
aa(lp655
g2
ag3
ag17
ag5
ag6
(g10
S'8\xe9<I\x94\xca\x93@'
p656
tp657
Rp658
aI0
aa(lp659
g2
ag3
ag17
ag23
ag6
(g10
S'm\x01U\x01\xadl\x8e@'
p660
tp661
Rp662
aI0
aa(lp663
g2
ag3
ag17
ag5
ag6
(g10
S'\xe8 0\xbc\xbau\x94@'
p664
tp665
Rp666
aI1
aa(lp667
g2
ag3
ag22
ag5
ag6
(g10
S'\\\xba\x13\xb3\x02\xa8\x95@'
p668
tp669
Rp670
aI1
aa(lp671
g2
ag3
ag22
ag23
ag6
(g10
S'\xa3\xee\xebm\xb5\x8a\x94@'
p672
tp673
Rp674
aI1
aa(lp675
g2
ag3
ag22
ag5
ag6
(g10
S'\xfc\xa0\x1b\\dV\x90@'
p676
tp677
Rp678
aI1
aa(lp679
g2
ag3
ag4
ag23
ag6
(g10
S'\xe8L\xb3~$N\x96@'
p680
tp681
Rp682
aI1
aa(lp683
g2
ag3
ag4
ag5
ag6
(g10
S'c\t<?\xc5\x98\x92@'
p684
tp685
Rp686
aI0
aa.