(lp0
(lp1
S'mixed'
p2
aS'long'
p3
aS'face'
p4
aS'absent'
p5
acnumpy.core.multiarray
scalar
p6
(cnumpy
dtype
p7
(S'f8'
p8
I0
I1
tp9
Rp10
(I3
S'<'
p11
NNNI-1
I-1
I0
tp12
bS'\x06<A\x95\xcdW\x96@'
p13
tp14
Rp15
aI0
aa(lp16
g2
ag3
aS'letter'
p17
aS'present'
p18
ag6
(g10
S'k\xa0\xc0\xde\xc1\x81\x8d@'
p19
tp20
Rp21
aI1
aa(lp22
g2
aS'short'
p23
aS'house'
p24
ag18
ag6
(g10
S'\xaai>[\x7f\xc4\x96@'
p25
tp26
Rp27
aI1
aa(lp28
g2
ag23
ag17
ag5
ag6
(g10
S'Fhy\xd9\xdf\xec\x91@'
p29
tp30
Rp31
aI1
aa(lp32
g2
ag23
ag4
ag5
ag6
(g10
S'\xf0ifn\xdc\xa6\x91@'
p33
tp34
Rp35
aI0
aa(lp36
g2
ag23
ag4
ag5
ag6
(g10
S'\xe0\xb8+\x06E\xe6\x95@'
p37
tp38
Rp39
aI1
aa(lp40
g2
ag3
ag4
ag5
ag6
(g10
S'c\x11gqg\xf3\x91@'
p41
tp42
Rp43
aI0
aa(lp44
g2
ag3
ag24
ag18
ag6
(g10
S'\x85S)#\x91\xb6\x90@'
p45
tp46
Rp47
aI0
aa(lp48
g2
ag3
ag17
ag18
ag6
(g10
S'\x17\xc8\x1a\x11\xf6\x01\x96@'
p49
tp50
Rp51
aI0
aa(lp52
g2
ag23
ag24
ag5
ag6
(g10
S'*t\x8a\xa4\xf4Y\x8d@'
p53
tp54
Rp55
aI1
aa(lp56
g2
ag23
ag24
ag5
ag6
(g10
S'*\xf5\xbf\xf9\xad\xe2\x90@'
p57
tp58
Rp59
aI0
aa(lp60
g2
ag23
ag17
ag5
ag6
(g10
S'\xe9d\x94\x91\x12:\x90@'
p61
tp62
Rp63
aI1
aa(lp64
g2
ag3
ag17
ag18
ag6
(g10
S'zU\x88\xf0I\x17\x94@'
p65
tp66
Rp67
aI0
aa(lp68
g2
ag23
ag17
ag18
ag6
(g10
S'\x99\xd28a\xe8\xa7\x8c@'
p69
tp70
Rp71
aI0
aa(lp72
g2
ag3
ag24
ag18
ag6
(g10
S'\xca\x01V\xdeK\x1c\x91@'
p73
tp74
Rp75
aI0
aa(lp76
g2
ag3
ag17
ag5
ag6
(g10
S'$j\x00\xca\xbd\xb4\x93@'
p77
tp78
Rp79
aI1
aa(lp80
g2
ag3
ag4
ag18
ag6
(g10
S'~\x90\x9e\xa4\x17e\x93@'
p81
tp82
Rp83
aI0
aa(lp84
g2
ag23
ag24
ag18
ag6
(g10
S'\xfa>S\xf4\xbf0\x8d@'
p85
tp86
Rp87
aI1
aa(lp88
g2
ag3
ag4
ag5
ag6
(g10
S'JF\xf3\r"R\x97@'
p89
tp90
Rp91
aI0
aa(lp92
g2
ag23
ag24
ag5
ag6
(g10
S'[\xd3\x83\x8cD\x14\x90@'
p93
tp94
Rp95
aI1
aa(lp96
g2
ag23
ag17
ag5
ag6
(g10
S'\xee\xa3]\x96t\x0f\x94@'
p97
tp98
Rp99
aI1
aa(lp100
g2
ag23
ag24
ag18
ag6
(g10
S'\x18>\xaeU\xedJ\x8c@'
p101
tp102
Rp103
aI1
aa(lp104
g2
ag3
ag17
ag18
ag6
(g10
S'\xb0\x93\xa1X\x89s\x92@'
p105
tp106
Rp107
aI1
aa(lp108
g2
ag3
ag17
ag5
ag6
(g10
S'\x94\x0b\xf5(0\xb8\x8e@'
p109
tp110
Rp111
aI1
aa(lp112
g2
ag3
ag17
ag5
ag6
(g10
S'[\xaah\xe2y}\x8d@'
p113
tp114
Rp115
aI1
aa(lp116
g2
ag3
ag24
ag5
ag6
(g10
S'\x01V\x05\x86_\xc9\x90@'
p117
tp118
Rp119
aI0
aa(lp120
g2
ag23
ag24
ag5
ag6
(g10
S'n\xa6)9Z.\x92@'
p121
tp122
Rp123
aI0
aa(lp124
g2
ag23
ag17
ag18
ag6
(g10
S'\xf1g\xe5\x87\xf1\xd6\x92@'
p125
tp126
Rp127
aI0
aa(lp128
g2
ag3
ag24
ag18
ag6
(g10
S'\xbd]\x8bL\x15c\x91@'
p129
tp130
Rp131
aI0
aa(lp132
g2
ag3
ag17
ag5
ag6
(g10
S'$\x94\x1a\x15\xd9c\x93@'
p133
tp134
Rp135
aI0
aa(lp136
g2
ag23
ag17
ag18
ag6
(g10
S'^\xdf4%\x86c\x93@'
p137
tp138
Rp139
aI1
aa(lp140
g2
ag23
ag17
ag5
ag6
(g10
S'\x06\xc6c\xc3V\xa7\x94@'
p141
tp142
Rp143
aI1
aa(lp144
g2
ag23
ag17
ag5
ag6
(g10
S'\xa7qzS{\x1b\x92@'
p145
tp146
Rp147
aI0
aa(lp148
g2
ag3
ag17
ag5
ag6
(g10
S'd?\xcb\x85\xdb\xb0\x92@'
p149
tp150
Rp151
aI0
aa(lp152
g2
ag23
ag4
ag5
ag6
(g10
S'\xc7E\x13\xf4\xce\xc3\x94@'
p153
tp154
Rp155
aI0
aa(lp156
g2
ag3
ag4
ag18
ag6
(g10
S'U\xd2\x04S\xad\xd9\x8f@'
p157
tp158
Rp159
aI1
aa(lp160
g2
ag3
ag24
ag18
ag6
(g10
S'\\~\tC\xd9\xcb\x8f@'
p161
tp162
Rp163
aI1
aa(lp164
g2
ag3
ag17
ag18
ag6
(g10
S'\r\x15m\xf4!\x81\x92@'
p165
tp166
Rp167
aI0
aa(lp168
g2
ag23
ag24
ag5
ag6
(g10
S'\xf7XU\x7f\x14\x01\x93@'
p169
tp170
Rp171
aI1
aa(lp172
g2
ag3
ag4
ag5
ag6
(g10
S'\xfa4`\xfc\x8d\xd7\x91@'
p173
tp174
Rp175
aI0
aa(lp176
g2
ag23
ag4
ag18
ag6
(g10
S'(\t\x94\xbd\xac\xd8\x95@'
p177
tp178
Rp179
aI0
aa(lp180
g2
ag3
ag17
ag18
ag6
(g10
S'F)\xbc\x1ePH\x96@'
p181
tp182
Rp183
aI1
aa(lp184
g2
ag23
ag24
ag5
ag6
(g10
S'\xa0\xcd@f"\x04\x95@'
p185
tp186
Rp187
aI1
aa(lp188
g2
ag3
ag17
ag5
ag6
(g10
S'\xd5\x1aSZ\xaf\xae\x91@'
p189
tp190
Rp191
aI1
aa(lp192
g2
ag23
ag24
ag18
ag6
(g10
S'\x7f\x0c\x01d/\x08\x95@'
p193
tp194
Rp195
aI0
aa(lp196
g2
ag3
ag4
ag5
ag6
(g10
S'\x06\xf7\xcc9\x13\xf6\x92@'
p197
tp198
Rp199
aI0
aa(lp200
g2
ag23
ag4
ag18
ag6
(g10
S'\xbc\x86\xbc\x92\xe1\x8e\x91@'
p201
tp202
Rp203
aI0
aa(lp204
g2
ag3
ag24
ag18
ag6
(g10
S'\x86\x8d9\xad\x87b\x95@'
p205
tp206
Rp207
aI1
aa(lp208
g2
ag23
ag4
ag5
ag6
(g10
S'\xc4x\xf6D6\x07\x93@'
p209
tp210
Rp211
aI0
aa(lp212
g2
ag3
ag24
ag18
ag6
(g10
S'x}M\x8f\xa1\xb0\x8c@'
p213
tp214
Rp215
aI1
aa(lp216
g2
ag23
ag24
ag5
ag6
(g10
S'c\x84\x8e\xf32_\x92@'
p217
tp218
Rp219
aI0
aa(lp220
g2
ag3
ag17
ag18
ag6
(g10
S'\x847\x1c-?\x9b\x95@'
p221
tp222
Rp223
aI0
aa(lp224
g2
ag23
ag17
ag5
ag6
(g10
S'&\x82\x04\xb7BY\x93@'
p225
tp226
Rp227
aI1
aa(lp228
g2
ag23
ag17
ag5
ag6
(g10
S'\x85\x84v@\xd4\xff\x8d@'
p229
tp230
Rp231
aI1
aa(lp232
g2
ag3
ag4
ag5
ag6
(g10
S'<\xd6I\xdf(O\x94@'
p233
tp234
Rp235
aI0
aa(lp236
g2
ag23
ag4
ag5
ag6
(g10
S'7X\x04U8\x89\x91@'
p237
tp238
Rp239
aI1
aa(lp240
g2
ag23
ag4
ag5
ag6
(g10
S'\x94/\t\x8eiE\x93@'
p241
tp242
Rp243
aI1
aa(lp244
g2
ag3
ag17
ag5
ag6
(g10
S'\x12\xb1T[\x83~\x96@'
p245
tp246
Rp247
aI0
aa(lp248
g2
ag3
ag17
ag5
ag6
(g10
S'\xe5\xf0\x83\x90&n\x92@'
p249
tp250
Rp251
aI0
aa(lp252
g2
ag3
ag17
ag18
ag6
(g10
S'\xa1$\xe6\xbf\xecx\x91@'
p253
tp254
Rp255
aI0
aa(lp256
g2
ag23
ag4
ag18
ag6
(g10
S' \xa4#\xe6^(\x92@'
p257
tp258
Rp259
aI1
aa(lp260
g2
ag3
ag4
ag18
ag6
(g10
S'\x9a\xa4\x92\xa7\x90-\x96@'
p261
tp262
Rp263
aI1
aa(lp264
g2
ag23
ag4
ag5
ag6
(g10
S'\x01\x9c\xecJ\xd3\xb4\x92@'
p265
tp266
Rp267
aI1
aa(lp268
g2
ag23
ag4
ag5
ag6
(g10
S'\xd4\x9866\xeb\xe3\x96@'
p269
tp270
Rp271
aI0
aa(lp272
g2
ag23
ag17
ag18
ag6
(g10
S'\xad^/\n\xadQ\x8f@'
p273
tp274
Rp275
aI1
aa(lp276
g2
ag3
ag4
ag5
ag6
(g10
S'\xca\xb1\xe7\xd4$\xd2\x94@'
p277
tp278
Rp279
aI0
aa(lp280
g2
ag3
ag24
ag5
ag6
(g10
S'\x95g\xdcH\xcd\xa7\x8d@'
p281
tp282
Rp283
aI0
aa(lp284
g2
ag3
ag4
ag5
ag6
(g10
S"\xc0U\x96\x0e\xa7'\x8f@"
p285
tp286
Rp287
aI1
aa(lp288
g2
ag23
ag24
ag5
ag6
(g10
S'?#\xd2f`\xaa\x93@'
p289
tp290
Rp291
aI0
aa(lp292
g2
ag23
ag17
ag18
ag6
(g10
S'[%)8\xaf`\x90@'
p293
tp294
Rp295
aI1
aa(lp296
g2
ag23
ag24
ag18
ag6
(g10
S'\x121\xe3\xfbog\x97@'
p297
tp298
Rp299
aI1
aa(lp300
g2
ag3
ag4
ag5
ag6
(g10
S'\x8cL\x83\xfa\x83\xa4\x94@'
p301
tp302
Rp303
aI0
aa(lp304
g2
ag23
ag4
ag18
ag6
(g10
S':W\xa14\x9c\x87\x94@'
p305
tp306
Rp307
aI1
aa(lp308
g2
ag23
ag17
ag5
ag6
(g10
S'\x11:4\x89$\x1c\x8f@'
p309
tp310
Rp311
aI1
aa(lp312
g2
ag3
ag4
ag5
ag6
(g10
S'2(\xd0\xec[\xcf\x91@'
p313
tp314
Rp315
aI1
aa(lp316
g2
ag3
ag4
ag18
ag6
(g10
S'\x05UN\xb1\x18\x85\x96@'
p317
tp318
Rp319
aI1
aa(lp320
g2
ag23
ag24
ag5
ag6
(g10
S'r\xab\x99\xf0H\xe0\x95@'
p321
tp322
Rp323
aI0
aa(lp324
g2
ag3
ag4
ag5
ag6
(g10
S'M\xef\x8e\x0b\xab\xb6\x94@'
p325
tp326
Rp327
aI0
aa(lp328
g2
ag3
ag17
ag18
ag6
(g10
S'\xca\xa9>2\x11\xbb\x94@'
p329
tp330
Rp331
aI0
aa(lp332
g2
ag23
ag24
ag5
ag6
(g10
S'e9\xff\xa5\xd8\xd5\x95@'
p333
tp334
Rp335
aI1
aa(lp336
g2
ag3
ag4
ag18
ag6
(g10
S'%\x1e\xca\x12\xc2F\x8d@'
p337
tp338
Rp339
aI1
aa(lp340
g2
ag23
ag17
ag5
ag6
(g10
S'\x123\xde\x82\xd9\xbf\x90@'
p341
tp342
Rp343
aI1
aa(lp344
g2
ag23
ag24
ag5
ag6
(g10
S'\xdc\x8fz\x0b\xc6~\x94@'
p345
tp346
Rp347
aI1
aa(lp348
g2
ag23
ag17
ag18
ag6
(g10
S'\x17\x17\x0b\x81\x88\x90\x91@'
p349
tp350
Rp351
aI1
aa(lp352
g2
ag23
ag4
ag18
ag6
(g10
S'\xf6i\\\xf5-k\x8e@'
p353
tp354
Rp355
aI1
aa(lp356
g2
ag3
ag24
ag5
ag6
(g10
S'\x06\x90\xa8m\x0f\xe6\x8e@'
p357
tp358
Rp359
aI0
aa(lp360
g2
ag23
ag24
ag5
ag6
(g10
S'#\xf7\xcf\x8e)>\x91@'
p361
tp362
Rp363
aI1
aa(lp364
g2
ag23
ag24
ag18
ag6
(g10
S'xI\xff\xb4\\\xba\x94@'
p365
tp366
Rp367
aI0
aa(lp368
g2
ag3
ag17
ag5
ag6
(g10
S'\x1e\x83\xb10g\xdd\x8e@'
p369
tp370
Rp371
aI0
aa(lp372
g2
ag3
ag17
ag5
ag6
(g10
S'\xedjg\xd6\xbb\xb4\x92@'
p373
tp374
Rp375
aI0
aa(lp376
g2
ag23
ag24
ag18
ag6
(g10
S'\xf7\xe4\x1d\xe4\r\x04\x97@'
p377
tp378
Rp379
aI0
aa(lp380
g2
ag23
ag4
ag18
ag6
(g10
S'&\xcc\x82\x00&\xde\x96@'
p381
tp382
Rp383
aI1
aa(lp384
g2
ag3
ag24
ag5
ag6
(g10
S'\xb0\xbb\x07\xf5\xa9$\x96@'
p385
tp386
Rp387
aI1
aa(lp388
g2
ag23
ag17
ag5
ag6
(g10
S'F\xd5oz\x13\x86\x92@'
p389
tp390
Rp391
aI1
aa(lp392
g2
ag3
ag4
ag5
ag6
(g10
S'\xf2\xc7\x00\x7fd\xce\x92@'
p393
tp394
Rp395
aI1
aa(lp396
g2
ag3
ag24
ag5
ag6
(g10
S'\xec\xf3\xd2\xdc\xed\x8a\x94@'
p397
tp398
Rp399
aI1
aa(lp400
g2
ag3
ag17
ag18
ag6
(g10
S'/\xcb@v\xce\xf9\x94@'
p401
tp402
Rp403
aI0
aa(lp404
g2
ag3
ag17
ag5
ag6
(g10
S'\x04\x8e\x9f\xed\xe58\x95@'
p405
tp406
Rp407
aI0
aa(lp408
g2
ag23
ag4
ag5
ag6
(g10
S'\xbc\xfb\x0cy\xbb\x17\x91@'
p409
tp410
Rp411
aI0
aa(lp412
g2
ag3
ag24
ag18
ag6
(g10
S'\xfd8\xb9\x01\xdb\xf1\x90@'
p413
tp414
Rp415
aI0
aa(lp416
g2
ag3
ag17
ag5
ag6
(g10
S'\xe7\xdc\xa7\xc2G\xd7\x90@'
p417
tp418
Rp419
aI1
aa(lp420
g2
ag23
ag17
ag5
ag6
(g10
S'\xe1\xf0!\xad\x7fF\x96@'
p421
tp422
Rp423
aI0
aa(lp424
g2
ag3
ag24
ag5
ag6
(g10
S'\x96a\xa5E\xd5\x06\x90@'
p425
tp426
Rp427
aI1
aa(lp428
g2
ag23
ag24
ag18
ag6
(g10
S'L\xe9\xe6\xe8\x15\xf0\x8d@'
p429
tp430
Rp431
aI1
aa(lp432
g2
ag23
ag17
ag5
ag6
(g10
S'm\xd5\xbb\t~1\x8c@'
p433
tp434
Rp435
aI0
aa(lp436
g2
ag3
ag24
ag5
ag6
(g10
S'\xdf\xd4\x0f\x8e\x9e\xa3\x94@'
p437
tp438
Rp439
aI1
aa(lp440
g2
ag3
ag17
ag18
ag6
(g10
S'\x98)\xc8&I\x0e\x92@'
p441
tp442
Rp443
aI1
aa(lp444
g2
ag23
ag4
ag18
ag6
(g10
S'}\x18\x19\xf0\xeci\x8e@'
p445
tp446
Rp447
aI1
aa(lp448
g2
ag3
ag4
ag5
ag6
(g10
S'\xec\x0b>\x8d\xe5\xac\x91@'
p449
tp450
Rp451
aI0
aa(lp452
g2
ag23
ag4
ag5
ag6
(g10
S'\x8e=!\xcb\x08\xf5\x91@'
p453
tp454
Rp455
aI0
aa(lp456
g2
ag3
ag24
ag5
ag6
(g10
S'E\xeb\xe66\x87y\x8e@'
p457
tp458
Rp459
aI1
aa(lp460
g2
ag23
ag24
ag5
ag6
(g10
S'z"j\x9f?8\x95@'
p461
tp462
Rp463
aI1
aa(lp464
g2
ag23
ag24
ag5
ag6
(g10
S'(\xc1\xa1\x9c\xd4\xa7\x90@'
p465
tp466
Rp467
aI0
aa(lp468
g2
ag23
ag4
ag5
ag6
(g10
S"'\x1d\x1e\x96\xe6\x1f\x8d@"
p469
tp470
Rp471
aI0
aa(lp472
g2
ag23
ag24
ag18
ag6
(g10
S'B\x07B\xb0-\x83\x8e@'
p473
tp474
Rp475
aI0
aa(lp476
g2
ag3
ag24
ag18
ag6
(g10
S'\xb0\xbdgOs\xbb\x92@'
p477
tp478
Rp479
aI0
aa(lp480
g2
ag23
ag24
ag18
ag6
(g10
S'\xb6\xec\x9b2\xbdg\x95@'
p481
tp482
Rp483
aI1
aa(lp484
g2
ag3
ag24
ag5
ag6
(g10
S'\x90\x8aa\x95\xb71\x96@'
p485
tp486
Rp487
aI0
aa(lp488
g2
ag3
ag4
ag5
ag6
(g10
S'\xd2/B\x85`D\x97@'
p489
tp490
Rp491
aI1
aa(lp492
g2
ag23
ag4
ag5
ag6
(g10
S' \x84&\xacM&\x93@'
p493
tp494
Rp495
aI0
aa(lp496
g2
ag3
ag4
ag18
ag6
(g10
S'%9\x95\xd8\x8c\xba\x93@'
p497
tp498
Rp499
aI0
aa(lp500
g2
ag3
ag4
ag5
ag6
(g10
S'\xc2\xa5\xed\xba\xfb\xfd\x91@'
p501
tp502
Rp503
aI1
aa(lp504
g2
ag3
ag17
ag5
ag6
(g10
S'n\x8a`\xc9\xd3T\x95@'
p505
tp506
Rp507
aI1
aa(lp508
g2
ag3
ag17
ag18
ag6
(g10
S'b\x02r\x8a\xfb6\x92@'
p509
tp510
Rp511
aI1
aa(lp512
g2
ag23
ag24
ag18
ag6
(g10
S'\xd2\x97Dwm8\x94@'
p513
tp514
Rp515
aI0
aa(lp516
g2
ag3
ag4
ag18
ag6
(g10
S'\x96\x03\xa5\x0f\xcc>\x93@'
p517
tp518
Rp519
aI0
aa(lp520
g2
ag3
ag24
ag5
ag6
(g10
S'\xa3\x82+\x82@\xcf\x8f@'
p521
tp522
Rp523
aI0
aa(lp524
g2
ag3
ag17
ag18
ag6
(g10
S'\xea\x89f\xdd\xe0\x8b\x92@'
p525
tp526
Rp527
aI1
aa(lp528
g2
ag23
ag17
ag5
ag6
(g10
S'\xd4\xfa\xfc)\xff\xbc\x92@'
p529
tp530
Rp531
aI0
aa(lp532
g2
ag3
ag4
ag18
ag6
(g10
S"\xa4\x91}'J6\x8d@"
p533
tp534
Rp535
aI1
aa(lp536
g2
ag3
ag4
ag5
ag6
(g10
S'\x9e\xb4h\x8e\xa6\x1d\x94@'
p537
tp538
Rp539
aI0
aa(lp540
g2
ag3
ag24
ag18
ag6
(g10
S'`\xc1\xa4f\x13\xbc\x91@'
p541
tp542
Rp543
aI1
aa(lp544
g2
ag23
ag4
ag5
ag6
(g10
S'6_Uu\xf5\xd3\x96@'
p545
tp546
Rp547
aI1
aa(lp548
g2
ag3
ag24
ag18
ag6
(g10
S'\xcc\xd6\xec;\x82s\x8d@'
p549
tp550
Rp551
aI0
aa(lp552
g2
ag3
ag4
ag18
ag6
(g10
S'\xb7J(\x01\x7f\x89\x94@'
p553
tp554
Rp555
aI1
aa(lp556
g2
ag3
ag24
ag5
ag6
(g10
S'"\x13\xb2H\xa4W\x95@'
p557
tp558
Rp559
aI0
aa(lp560
g2
ag23
ag4
ag18
ag6
(g10
S'\xee\x03\xd7\xbd\x87\xf1\x96@'
p561
tp562
Rp563
aI0
aa(lp564
g2
ag3
ag24
ag5
ag6
(g10
S'\x80\x1c`\x0e\xc2\xdd\x94@'
p565
tp566
Rp567
aI0
aa(lp568
g2
ag3
ag17
ag18
ag6
(g10
S'\x90x\xc4$\x80x\x94@'
p569
tp570
Rp571
aI0
aa(lp572
g2
ag23
ag24
ag5
ag6
(g10
S'\x9d\x88S\x12\x10\x87\x93@'
p573
tp574
Rp575
aI1
aa(lp576
g2
ag3
ag17
ag18
ag6
(g10
S'\x1c\xbc\x194\xd2!\x96@'
p577
tp578
Rp579
aI1
aa(lp580
g2
ag3
ag24
ag18
ag6
(g10
S'\xdf\x02"\xae\xe9\xa1\x91@'
p581
tp582
Rp583
aI1
aa(lp584
g2
ag23
ag24
ag5
ag6
(g10
S'PN\x9a\x92~4\x95@'
p585
tp586
Rp587
aI1
aa(lp588
g2
ag3
ag4
ag18
ag6
(g10
S'\xacl\x11\xb7\x8ar\x94@'
p589
tp590
Rp591
aI0
aa(lp592
g2
ag3
ag4
ag18
ag6
(g10
S'\x17\x89\xd8\xd5\xd7\x84\x95@'
p593
tp594
Rp595
aI0
aa(lp596
g2
ag23
ag4
ag5
ag6
(g10
S'\xd5\x91\xe4\xf2 \xf8\x90@'
p597
tp598
Rp599
aI0
aa(lp600
g2
ag23
ag24
ag18
ag6
(g10
S'\xebIP\xe4\xc4\xdc\x96@'
p601
tp602
Rp603
aI0
aa(lp604
g2
ag3
ag17
ag5
ag6
(g10
S'\x8e1\x90DeE\x96@'
p605
tp606
Rp607
aI1
aa(lp608
g2
ag3
ag17
ag5
ag6
(g10
S'\xfdqd>\xf9\xb8\x8c@'
p609
tp610
Rp611
aI0
aa(lp612
g2
ag23
ag17
ag18
ag6
(g10
S'8\xae\xf9\xc4I\x11\x8e@'
p613
tp614
Rp615
aI1
aa(lp616
g2
ag3
ag17
ag5
ag6
(g10
S'\xbeE5jT\xfe\x8c@'
p617
tp618
Rp619
aI1
aa(lp620
g2
ag3
ag17
ag18
ag6
(g10
S'f\x9f\xab\x8b\xe1\xa0\x95@'
p621
tp622
Rp623
aI1
aa(lp624
g2
ag23
ag4
ag5
ag6
(g10
S'~T\x99\x97\n\xee\x96@'
p625
tp626
Rp627
aI1
aa(lp628
g2
ag23
ag24
ag5
ag6
(g10
S'\x95\x12\xe0\xf3\xde\xfb\x94@'
p629
tp630
Rp631
aI1
aa(lp632
g2
ag3
ag17
ag5
ag6
(g10
S'\x12z2\x8bBe\x94@'
p633
tp634
Rp635
aI0
aa(lp636
g2
ag3
ag4
ag18
ag6
(g10
S'\xfb\x13d\xd0Pk\x90@'
p637
tp638
Rp639
aI1
aa(lp640
g2
ag3
ag24
ag5
ag6
(g10
S'\xe0\x0ebt\xa9\xb7\x95@'
p641
tp642
Rp643
aI1
aa(lp644
g2
ag23
ag4
ag5
ag6
(g10
S'\xacVm\xb0\xf5\xcd\x92@'
p645
tp646
Rp647
aI0
aa(lp648
g2
ag3
ag4
ag18
ag6
(g10
S'h#H\xce\x86<\x8c@'
p649
tp650
Rp651
aI1
aa(lp652
g2
ag3
ag24
ag5
ag6
(g10
S'\x1e\xe3\x8b+`F\x92@'
p653
tp654
Rp655
aI0
aa(lp656
g2
ag23
ag17
ag18
ag6
(g10
S'\xf6Vq\xaa\xa2\x94\x93@'
p657
tp658
Rp659
aI0
aa(lp660
g2
ag23
ag17
ag5
ag6
(g10
S'\x98\xbf\xa7\xb3+R\x96@'
p661
tp662
Rp663
aI0
aa(lp664
g2
ag3
ag4
ag5
ag6
(g10
S'\xf1\xeb|)t\xc7\x93@'
p665
tp666
Rp667
aI1
aa(lp668
g2
ag23
ag17
ag5
ag6
(g10
S'\xf41\xf2\xa2\x86\xda\x90@'
p669
tp670
Rp671
aI0
aa(lp672
g2
ag3
ag4
ag18
ag6
(g10
S"i'\x88B\xd2\x97\x8c@"
p673
tp674
Rp675
aI0
aa(lp676
g2
ag3
ag24
ag5
ag6
(g10
S'\xa2\xbe\x04l:\xdf\x94@'
p677
tp678
Rp679
aI1
aa(lp680
g2
ag3
ag4
ag18
ag6
(g10
S' \x85\xd1`>\xbf\x8d@'
p681
tp682
Rp683
aI1
aa(lp684
g2
ag3
ag24
ag5
ag6
(g10
S'\x8b\xc8_8\x9e\xdf\x94@'
p685
tp686
Rp687
aI0
aa.