(lp0
(lp1
S'mixed'
p2
aS'short'
p3
aS'face'
p4
aS'absent'
p5
acnumpy.core.multiarray
scalar
p6
(cnumpy
dtype
p7
(S'f8'
p8
I0
I1
tp9
Rp10
(I3
S'<'
p11
NNNI-1
I-1
I0
tp12
bS'\xedG\x84q\x0c\x02\x94@'
p13
tp14
Rp15
aI1
aa(lp16
g2
ag3
ag4
ag5
ag6
(g10
S'5\xba\xd97\x8a\xbc\x91@'
p17
tp18
Rp19
aI1
aa(lp20
g2
aS'long'
p21
aS'house'
p22
ag5
ag6
(g10
S'^2\xf7\x10\n^\x95@'
p23
tp24
Rp25
aI0
aa(lp26
g2
ag21
ag4
aS'present'
p27
ag6
(g10
S'g8y\x8b\xac\xb6\x95@'
p28
tp29
Rp30
aI0
aa(lp31
g2
ag21
ag4
ag5
ag6
(g10
S'\xd1~\x7fCU\xd8\x92@'
p32
tp33
Rp34
aI0
aa(lp35
g2
ag3
ag4
ag27
ag6
(g10
S'>:B\xc5\xc4\xa2\x93@'
p36
tp37
Rp38
aI0
aa(lp39
g2
ag3
aS'letter'
p40
ag27
ag6
(g10
S'q`\x18f1\xb5\x92@'
p41
tp42
Rp43
aI0
aa(lp44
g2
ag3
ag40
ag5
ag6
(g10
S'\x88\xf7\xa6!\xda\xee\x8e@'
p45
tp46
Rp47
aI0
aa(lp48
g2
ag3
ag22
ag27
ag6
(g10
S'q\xe1\xc5\xf50\r\x96@'
p49
tp50
Rp51
aI1
aa(lp52
g2
ag21
ag40
ag5
ag6
(g10
S'\xb7\xa6z\xb6\x87\xd7\x95@'
p53
tp54
Rp55
aI1
aa(lp56
g2
ag3
ag40
ag5
ag6
(g10
S'\xbaY!\xb8\x9a\xa8\x93@'
p57
tp58
Rp59
aI0
aa(lp60
g2
ag3
ag4
ag27
ag6
(g10
S'\xda\x1d\xff\x1f\x19\x85\x93@'
p61
tp62
Rp63
aI0
aa(lp64
g2
ag21
ag40
ag5
ag6
(g10
S'wKshW3\x94@'
p65
tp66
Rp67
aI1
aa(lp68
g2
ag21
ag4
ag27
ag6
(g10
S'\x18\xc0B\xc3#\xd8\x8d@'
p69
tp70
Rp71
aI1
aa(lp72
g2
ag3
ag4
ag5
ag6
(g10
S'-\x10\xea\xd4\x01%\x95@'
p73
tp74
Rp75
aI1
aa(lp76
g2
ag3
ag22
ag27
ag6
(g10
S'\xaa\xe5B\xb7\xc9\x16\x90@'
p77
tp78
Rp79
aI1
aa(lp80
g2
ag3
ag40
ag27
ag6
(g10
S'\xda\x8e\xbeC\x06\xdb\x8f@'
p81
tp82
Rp83
aI0
aa(lp84
g2
ag3
ag4
ag27
ag6
(g10
S'\xfexBQ\xe2\xf1\x8f@'
p85
tp86
Rp87
aI1
aa(lp88
g2
ag21
ag4
ag5
ag6
(g10
S'\xae\x99\x8e\xdfD_\x93@'
p89
tp90
Rp91
aI1
aa(lp92
g2
ag3
ag22
ag5
ag6
(g10
S'\x8c\xf2\xedq7\x03\x8d@'
p93
tp94
Rp95
aI0
aa(lp96
g2
ag21
ag22
ag27
ag6
(g10
S'\x90\x9dG\xfa8\xf7\x91@'
p97
tp98
Rp99
aI1
aa(lp100
g2
ag21
ag22
ag5
ag6
(g10
S'\xcd\x81\xf2\xd7\x8b\xb5\x94@'
p101
tp102
Rp103
aI1
aa(lp104
g2
ag3
ag4
ag5
ag6
(g10
S'\x99\x1e;\x9cOT\x8f@'
p105
tp106
Rp107
aI1
aa(lp108
g2
ag3
ag40
ag5
ag6
(g10
S'\xe0;\xaf\xe0\xf0E\x92@'
p109
tp110
Rp111
aI1
aa(lp112
g2
ag21
ag22
ag27
ag6
(g10
S'\x80\x10\x93\xac\xe22\x93@'
p113
tp114
Rp115
aI1
aa(lp116
g2
ag3
ag4
ag27
ag6
(g10
S'\xca\x92\xec&\xd1\xa5\x8c@'
p117
tp118
Rp119
aI0
aa(lp120
g2
ag3
ag4
ag5
ag6
(g10
S'\xf6\xa7\xe7\x14\x94O\x95@'
p121
tp122
Rp123
aI1
aa(lp124
g2
ag3
ag22
ag5
ag6
(g10
S"=d\xce'\xe6\xcb\x91@"
p125
tp126
Rp127
aI0
aa(lp128
g2
ag3
ag4
ag27
ag6
(g10
S'\x15\xe8}\x13Jp\x8e@'
p129
tp130
Rp131
aI1
aa(lp132
g2
ag21
ag22
ag27
ag6
(g10
S'\x02Y\x1a>\x86\xfd\x93@'
p133
tp134
Rp135
aI1
aa(lp136
g2
ag3
ag22
ag5
ag6
(g10
S'\x90ZN\x83\x8e\x97\x96@'
p137
tp138
Rp139
aI1
aa(lp140
g2
ag3
ag22
ag5
ag6
(g10
S'R+\x8eS}\x97\x8f@'
p141
tp142
Rp143
aI0
aa(lp144
g2
ag3
ag40
ag5
ag6
(g10
S'\x0b\xb6\xbd\x0f\t>\x8c@'
p145
tp146
Rp147
aI1
aa(lp148
g2
ag3
ag22
ag27
ag6
(g10
S'L2O\x98y\x92\x93@'
p149
tp150
Rp151
aI0
aa(lp152
g2
ag21
ag40
ag27
ag6
(g10
S'\xae\xda\xc5^cV\x93@'
p153
tp154
Rp155
aI1
aa(lp156
g2
ag3
ag22
ag5
ag6
(g10
S'\xda\xe7"`\xf8*\x93@'
p157
tp158
Rp159
aI1
aa(lp160
g2
ag21
ag40
ag27
ag6
(g10
S'\x15\xe6\x03\xc33m\x8f@'
p161
tp162
Rp163
aI1
aa(lp164
g2
ag3
ag22
ag5
ag6
(g10
S'^$wa\x84\x89\x93@'
p165
tp166
Rp167
aI1
aa(lp168
g2
ag3
ag40
ag27
ag6
(g10
S'rj\x11\xc0$\xd1\x92@'
p169
tp170
Rp171
aI1
aa(lp172
g2
ag3
ag40
ag5
ag6
(g10
S'\x12\xdc\xc9\xb9\xec\xfc\x95@'
p173
tp174
Rp175
aI0
aa(lp176
g2
ag3
ag40
ag5
ag6
(g10
S"\xcc'\xa3\xd5p\x15\x96@"
p177
tp178
Rp179
aI1
aa(lp180
g2
ag21
ag22
ag27
ag6
(g10
S'|\xfe\x87e\x8b\xcf\x90@'
p181
tp182
Rp183
aI0
aa(lp184
g2
ag3
ag22
ag27
ag6
(g10
S'\x90+\x8b\x02+\x8d\x8d@'
p185
tp186
Rp187
aI0
aa(lp188
g2
ag3
ag22
ag5
ag6
(g10
S'w\xd3X\xfb\xb8\x11\x90@'
p189
tp190
Rp191
aI1
aa(lp192
g2
ag3
ag4
ag5
ag6
(g10
S'ZqjGFa\x97@'
p193
tp194
Rp195
aI0
aa(lp196
g2
ag21
ag22
ag27
ag6
(g10
S'\xf9\xe5X\xce\xfa\xfb\x96@'
p197
tp198
Rp199
aI1
aa(lp200
g2
ag21
ag4
ag5
ag6
(g10
S'\x18\x189TS\xaf\x8d@'
p201
tp202
Rp203
aI1
aa(lp204
g2
ag3
ag40
ag27
ag6
(g10
S'\xad\xc8\xce\x15?\xac\x92@'
p205
tp206
Rp207
aI1
aa(lp208
g2
ag21
ag22
ag5
ag6
(g10
S'\x07\xf7\xfeT\xd1\xf9\x95@'
p209
tp210
Rp211
aI0
aa(lp212
g2
ag3
ag40
ag27
ag6
(g10
S'\xa5\x8c\x87\xe9\xc0\x87\x91@'
p213
tp214
Rp215
aI0
aa(lp216
g2
ag3
ag4
ag27
ag6
(g10
S'z\xc73\xcc\xa8{\x8c@'
p217
tp218
Rp219
aI0
aa(lp220
g2
ag21
ag40
ag5
ag6
(g10
S'\xa5\xfe\x9a\xd0Vp\x91@'
p221
tp222
Rp223
aI0
aa(lp224
g2
ag21
ag4
ag5
ag6
(g10
S'\x17^\x04\xd0\xaf\x84\x96@'
p225
tp226
Rp227
aI0
aa(lp228
g2
ag3
ag40
ag27
ag6
(g10
S"'\x17\x82\x0f\x0e|\x92@"
p229
tp230
Rp231
aI0
aa(lp232
g2
ag21
ag40
ag27
ag6
(g10
S'e\xdb\x02\xdc\x9e\xe6\x92@'
p233
tp234
Rp235
aI1
aa(lp236
g2
ag21
ag40
ag27
ag6
(g10
S'\xb6\xa0"\xa3\xb1\x9a\x94@'
p237
tp238
Rp239
aI0
aa(lp240
g2
ag3
ag4
ag5
ag6
(g10
S'\xf0\x0c\xc9t\xa3\xe5\x8f@'
p241
tp242
Rp243
aI1
aa(lp244
g2
ag21
ag4
ag27
ag6
(g10
S'\xd2c\x1bR\x1bq\x8c@'
p245
tp246
Rp247
aI0
aa(lp248
g2
ag21
ag22
ag5
ag6
(g10
S'\xfe\xf1\xec\x04\xf3\xd1\x93@'
p249
tp250
Rp251
aI1
aa(lp252
g2
ag3
ag4
ag27
ag6
(g10
S'<\x98\xc81=x\x93@'
p253
tp254
Rp255
aI1
aa(lp256
g2
ag21
ag40
ag5
ag6
(g10
S'j\x8d\xd7\xd1\xb9\xff\x92@'
p257
tp258
Rp259
aI1
aa(lp260
g2
ag3
ag22
ag5
ag6
(g10
S'\xf2q\xf1\xb37\\\x96@'
p261
tp262
Rp263
aI0
aa(lp264
g2
ag3
ag22
ag5
ag6
(g10
S'\xe7& \xf4\x1eC\x92@'
p265
tp266
Rp267
aI1
aa(lp268
g2
ag21
ag4
ag27
ag6
(g10
S'\xa6\x13\xe4w\x96\x13\x93@'
p269
tp270
Rp271
aI1
aa(lp272
g2
ag21
ag40
ag5
ag6
(g10
S'\xfc\x13\xc6\xf2\xd3\x16\x8f@'
p273
tp274
Rp275
aI1
aa(lp276
g2
ag3
ag4
ag27
ag6
(g10
S'\xfc"\xaa\xa0\x06\r\x95@'
p277
tp278
Rp279
aI0
aa(lp280
g2
ag21
ag40
ag5
ag6
(g10
S'$\x13\xc45\t7\x95@'
p281
tp282
Rp283
aI0
aa(lp284
g2
ag3
ag22
ag5
ag6
(g10
S'\xbe\xecL\xe8p\x12\x93@'
p285
tp286
Rp287
aI1
aa(lp288
g2
ag21
ag22
ag5
ag6
(g10
S'Vr&\x01\x81\xb0\x8c@'
p289
tp290
Rp291
aI1
aa(lp292
g2
ag21
ag4
ag5
ag6
(g10
S'\r\xc0\xbd\x9e+\x92\x90@'
p293
tp294
Rp295
aI1
aa(lp296
g2
ag3
ag4
ag27
ag6
(g10
S'p\x13\xa9r\x80\xba\x94@'
p297
tp298
Rp299
aI1
aa(lp300
g2
ag21
ag4
ag5
ag6
(g10
S'\x01\x88\xfe\xabt\xbf\x8e@'
p301
tp302
Rp303
aI1
aa(lp304
g2
ag3
ag40
ag27
ag6
(g10
S"\x94}'\x96\xcf\xba\x95@"
p305
tp306
Rp307
aI0
aa(lp308
g2
ag3
ag40
ag5
ag6
(g10
S'K=\x0b\x1f5/\x96@'
p309
tp310
Rp311
aI1
aa(lp312
g2
ag3
ag4
ag27
ag6
(g10
S'\x1f(\xb0\x8bm\xfa\x94@'
p313
tp314
Rp315
aI1
aa(lp316
g2
ag3
ag22
ag5
ag6
(g10
S'\xe4\xe8\xd8\xf2\xc9!\x8e@'
p317
tp318
Rp319
aI0
aa(lp320
g2
ag21
ag22
ag5
ag6
(g10
S"\xc3l$'*;\x93@"
p321
tp322
Rp323
aI1
aa(lp324
g2
ag21
ag4
ag5
ag6
(g10
S'\xe0.\x93\x9bH\xcb\x8c@'
p325
tp326
Rp327
aI1
aa(lp328
g2
ag21
ag40
ag5
ag6
(g10
S'1cg \xbdq\x96@'
p329
tp330
Rp331
aI0
aa(lp332
g2
ag3
ag4
ag27
ag6
(g10
S'\xb72`\xce\xc7D\x8d@'
p333
tp334
Rp335
aI1
aa(lp336
g2
ag3
ag22
ag27
ag6
(g10
S'W\x98\xc0\xf8\x02P\x8e@'
p337
tp338
Rp339
aI0
aa(lp340
g2
ag3
ag4
ag5
ag6
(g10
S'T\xed\xd2\xd92K\x90@'
p341
tp342
Rp343
aI1
aa(lp344
g2
ag21
ag40
ag5
ag6
(g10
S'\x19Zu\xfdq_\x96@'
p345
tp346
Rp347
aI1
aa(lp348
g2
ag21
ag4
ag5
ag6
(g10
S'\xddR\xf1@_Z\x92@'
p349
tp350
Rp351
aI1
aa(lp352
g2
ag21
ag40
ag27
ag6
(g10
S'\xe7\xd1\x90\x93\xdf\xf9\x8e@'
p353
tp354
Rp355
aI0
aa(lp356
g2
ag21
ag40
ag27
ag6
(g10
S'`7\xa2\xfe`\x9b\x95@'
p357
tp358
Rp359
aI1
aa(lp360
g2
ag21
ag40
ag5
ag6
(g10
S'\xe9\xb9\x17\x16E\xd9\x94@'
p361
tp362
Rp363
aI1
aa(lp364
g2
ag21
ag4
ag27
ag6
(g10
S'\x0b\xdbg\x9e*\xb6\x95@'
p365
tp366
Rp367
aI0
aa(lp368
g2
ag3
ag40
ag27
ag6
(g10
S'\xa8\xe09.\xbbb\x90@'
p369
tp370
Rp371
aI0
aa(lp372
g2
ag3
ag22
ag5
ag6
(g10
S'j\xbfy\xbc\x17\xc3\x93@'
p373
tp374
Rp375
aI1
aa(lp376
g2
ag21
ag4
ag27
ag6
(g10
S'*-8\x8d\x9d9\x8d@'
p377
tp378
Rp379
aI1
aa(lp380
g2
ag3
ag40
ag5
ag6
(g10
S'\xf8\x01\xe5\x86\xabD\x8d@'
p381
tp382
Rp383
aI0
aa(lp384
g2
ag3
ag40
ag5
ag6
(g10
S"'\x1b\x16\xdf/\x95\x96@"
p385
tp386
Rp387
aI0
aa(lp388
g2
ag3
ag4
ag27
ag6
(g10
S'\xa6\x0e(u\xcbR\x91@'
p389
tp390
Rp391
aI1
aa(lp392
g2
ag21
ag40
ag27
ag6
(g10
S'Q\\b\xe0\x83u\x91@'
p393
tp394
Rp395
aI1
aa(lp396
g2
ag3
ag40
ag27
ag6
(g10
S'\xee\xcb+\x16\x12T\x96@'
p397
tp398
Rp399
aI1
aa(lp400
g2
ag3
ag22
ag5
ag6
(g10
S'\xcc\xcf$\xa9\xb6\xb1\x92@'
p401
tp402
Rp403
aI0
aa(lp404
g2
ag21
ag22
ag27
ag6
(g10
S'\xc1_\x83\x82}\x11\x8d@'
p405
tp406
Rp407
aI1
aa(lp408
g2
ag21
ag40
ag5
ag6
(g10
S'\x18\xb8n\x10\xb6k\x92@'
p409
tp410
Rp411
aI1
aa(lp412
g2
ag3
ag22
ag5
ag6
(g10
S'6Jz*ES\x96@'
p413
tp414
Rp415
aI0
aa(lp416
g2
ag21
ag4
ag5
ag6
(g10
S'\x83\xf6g^\x81\x1a\x8d@'
p417
tp418
Rp419
aI1
aa(lp420
g2
ag3
ag40
ag27
ag6
(g10
S'r\xc0ri\x0e%\x8c@'
p421
tp422
Rp423
aI0
aa(lp424
g2
ag21
ag22
ag27
ag6
(g10
S'\x00(D\xde\xe5\xe9\x90@'
p425
tp426
Rp427
aI0
aa(lp428
g2
ag21
ag4
ag5
ag6
(g10
S'\x12}l\xdd\rq\x95@'
p429
tp430
Rp431
aI0
aa(lp432
g2
ag3
ag22
ag27
ag6
(g10
S'\xa0\x15X\xfc*\xfc\x8d@'
p433
tp434
Rp435
aI1
aa(lp436
g2
ag3
ag40
ag5
ag6
(g10
S'\x92:_\xf1q\xf5\x90@'
p437
tp438
Rp439
aI1
aa(lp440
g2
ag3
ag22
ag27
ag6
(g10
S'7\xb4s\x87\xdeM\x90@'
p441
tp442
Rp443
aI0
aa(lp444
g2
ag3
ag22
ag5
ag6
(g10
S'\x1b\x1cjG\xb6\xce\x92@'
p445
tp446
Rp447
aI0
aa(lp448
g2
ag21
ag22
ag27
ag6
(g10
S'\xeed\xe4\xafV\xaa\x90@'
p449
tp450
Rp451
aI0
aa(lp452
g2
ag3
ag40
ag5
ag6
(g10
S'\x16\x7f\xe2\xb0lh\x93@'
p453
tp454
Rp455
aI1
aa(lp456
g2
ag21
ag40
ag27
ag6
(g10
S'\x84\xc2,+\x8ar\x90@'
p457
tp458
Rp459
aI1
aa(lp460
g2
ag3
ag4
ag5
ag6
(g10
S'\xb0\x94f\xf6\xf0\x9c\x92@'
p461
tp462
Rp463
aI0
aa(lp464
g2
ag21
ag40
ag5
ag6
(g10
S'\xf1[n\x0c:\t\x92@'
p465
tp466
Rp467
aI1
aa(lp468
g2
ag3
ag40
ag27
ag6
(g10
S'\x80\x15\x93h\xf7\xea\x93@'
p469
tp470
Rp471
aI1
aa(lp472
g2
ag3
ag22
ag27
ag6
(g10
S'\x83\xf9\xc4\xfb\x13\x1c\x95@'
p473
tp474
Rp475
aI0
aa(lp476
g2
ag3
ag22
ag27
ag6
(g10
S't\r\x08\x1b}\x89\x90@'
p477
tp478
Rp479
aI1
aa(lp480
g2
ag21
ag40
ag5
ag6
(g10
S'z^\xbf\xe2\r:\x94@'
p481
tp482
Rp483
aI0
aa(lp484
g2
ag21
ag4
ag27
ag6
(g10
S'l\xe5%\xc3\xe4;\x95@'
p485
tp486
Rp487
aI0
aa(lp488
g2
ag21
ag4
ag5
ag6
(g10
S'*\xcf>\xba\xb6\xe0\x95@'
p489
tp490
Rp491
aI0
aa(lp492
g2
ag3
ag4
ag27
ag6
(g10
S'\x17\n9?1\xe6\x94@'
p493
tp494
Rp495
aI1
aa(lp496
g2
ag3
ag4
ag27
ag6
(g10
S'\r3\x97\xd6g\xf9\x94@'
p497
tp498
Rp499
aI0
aa(lp500
g2
ag21
ag40
ag27
ag6
(g10
S'\xc6GxE\xad\x9a\x92@'
p501
tp502
Rp503
aI1
aa(lp504
g2
ag3
ag40
ag5
ag6
(g10
S',G\x1b\xf0\xfa\x04\x91@'
p505
tp506
Rp507
aI1
aa(lp508
g2
ag21
ag40
ag27
ag6
(g10
S'\xc5\xabY\x06\x97c\x8d@'
p509
tp510
Rp511
aI1
aa(lp512
g2
ag3
ag22
ag5
ag6
(g10
S'\x10\x1dQp\xff\xca\x92@'
p513
tp514
Rp515
aI1
aa(lp516
g2
ag3
ag4
ag27
ag6
(g10
S'\xbd\x85\xd3\xdd\xbfg\x94@'
p517
tp518
Rp519
aI1
aa(lp520
g2
ag21
ag40
ag27
ag6
(g10
S'\xd1@ \xbc\x17E\x8c@'
p521
tp522
Rp523
aI1
aa(lp524
g2
ag21
ag40
ag5
ag6
(g10
S'v6\x970Q\x10\x97@'
p525
tp526
Rp527
aI0
aa(lp528
g2
ag3
ag4
ag27
ag6
(g10
S'\xce\x03\xaczQ\x04\x95@'
p529
tp530
Rp531
aI1
aa(lp532
g2
ag3
ag22
ag27
ag6
(g10
S'\xfe==a\xd8\xe5\x8c@'
p533
tp534
Rp535
aI0
aa(lp536
g2
ag3
ag22
ag5
ag6
(g10
S'\x1f\\\xb9\x117\x0e\x8d@'
p537
tp538
Rp539
aI0
aa(lp540
g2
ag21
ag22
ag27
ag6
(g10
S'\xcay2kV\xa1\x91@'
p541
tp542
Rp543
aI1
aa(lp544
g2
ag21
ag40
ag5
ag6
(g10
S'}\x1b\xe9\xaaUI\x8c@'
p545
tp546
Rp547
aI1
aa(lp548
g2
ag3
ag22
ag5
ag6
(g10
S'\xa9\x14\xa2\x80\xbe\x04\x8f@'
p549
tp550
Rp551
aI0
aa(lp552
g2
ag3
ag40
ag5
ag6
(g10
S'\xe0M\x1c\x08\xf0\xf0\x8d@'
p553
tp554
Rp555
aI1
aa(lp556
g2
ag21
ag22
ag27
ag6
(g10
S'\x00w\x00\x13\x9d\xdc\x91@'
p557
tp558
Rp559
aI0
aa(lp560
g2
ag3
ag22
ag5
ag6
(g10
S'\xc2\x7f`pnE\x96@'
p561
tp562
Rp563
aI0
aa(lp564
g2
ag21
ag22
ag27
ag6
(g10
S'\xba\x05\xfa\xa3;\x18\x90@'
p565
tp566
Rp567
aI0
aa(lp568
g2
ag21
ag22
ag5
ag6
(g10
S'\xcfB\x95\x186\xed\x91@'
p569
tp570
Rp571
aI0
aa(lp572
g2
ag3
ag4
ag27
ag6
(g10
S'\xd4\xf2\xf2\xd6\xf7G\x95@'
p573
tp574
Rp575
aI0
aa(lp576
g2
ag21
ag4
ag27
ag6
(g10
S'\x10\x82\x16G\x9d\x17\x96@'
p577
tp578
Rp579
aI0
aa(lp580
g2
ag21
ag22
ag5
ag6
(g10
S'P\xb0\x9fw}\xd5\x96@'
p581
tp582
Rp583
aI1
aa(lp584
g2
ag3
ag40
ag27
ag6
(g10
S"N\xf6'\xe1\xad\xb1\x95@"
p585
tp586
Rp587
aI1
aa(lp588
g2
ag21
ag4
ag27
ag6
(g10
S'\x1b\xd2\xd9\x99!B\x8c@'
p589
tp590
Rp591
aI0
aa(lp592
g2
ag3
ag22
ag27
ag6
(g10
S'\xf4\x83\xb8!L\xd5\x91@'
p593
tp594
Rp595
aI0
aa(lp596
g2
ag21
ag22
ag27
ag6
(g10
S'\x8a-\x1b\x1ec\x8d\x91@'
p597
tp598
Rp599
aI1
aa(lp600
g2
ag21
ag4
ag5
ag6
(g10
S'\x0e"\xa3\x02U\xc8\x8e@'
p601
tp602
Rp603
aI0
aa(lp604
g2
ag21
ag40
ag5
ag6
(g10
S'i\x89`>^\xe8\x95@'
p605
tp606
Rp607
aI1
aa(lp608
g2
ag21
ag22
ag27
ag6
(g10
S'\x8b\t\xed2n\x0f\x97@'
p609
tp610
Rp611
aI1
aa(lp612
g2
ag3
ag4
ag27
ag6
(g10
S'\xf5h\xf4\xdat\x8d\x91@'
p613
tp614
Rp615
aI1
aa(lp616
g2
ag3
ag22
ag5
ag6
(g10
S'\xbf\xe6\xa7\xf1\xad \x95@'
p617
tp618
Rp619
aI1
aa(lp620
g2
ag3
ag4
ag27
ag6
(g10
S'7\x92\xc5\x13\xe6\x88\x8f@'
p621
tp622
Rp623
aI0
aa(lp624
g2
ag21
ag4
ag27
ag6
(g10
S'A\x0cH\x99\xbe\xfc\x93@'
p625
tp626
Rp627
aI1
aa(lp628
g2
ag21
ag22
ag5
ag6
(g10
S'>\xaf\xa2\x99\x94\x8c\x96@'
p629
tp630
Rp631
aI1
aa(lp632
g2
ag21
ag22
ag27
ag6
(g10
S'\x00\x97\x9a^s5\x8c@'
p633
tp634
Rp635
aI0
aa(lp636
g2
ag21
ag4
ag5
ag6
(g10
S'\xb0\xb3\xfd\x7f\xff\xe1\x94@'
p637
tp638
Rp639
aI0
aa(lp640
g2
ag3
ag4
ag5
ag6
(g10
S'\xd1\\t!37\x8e@'
p641
tp642
Rp643
aI0
aa(lp644
g2
ag21
ag40
ag27
ag6
(g10
S'\xec\x03\x0f\xf5\xcb\xa9\x91@'
p645
tp646
Rp647
aI0
aa(lp648
g2
ag21
ag4
ag27
ag6
(g10
S'\x9e(\xc0\x13\x9f7\x97@'
p649
tp650
Rp651
aI0
aa(lp652
g2
ag3
ag40
ag27
ag6
(g10
S'\xc2&\x0c\x0e\xe1-\x96@'
p653
tp654
Rp655
aI0
aa(lp656
g2
ag21
ag40
ag5
ag6
(g10
S'.\xfc#u\t\xf6\x90@'
p657
tp658
Rp659
aI0
aa(lp660
g2
ag21
ag40
ag27
ag6
(g10
S'W\xe0\x90\xe4;\xf9\x93@'
p661
tp662
Rp663
aI0
aa(lp664
g2
ag3
ag22
ag5
ag6
(g10
S'\x81D\xe4\xe3\xe4l\x95@'
p665
tp666
Rp667
aI1
aa(lp668
g2
ag3
ag4
ag27
ag6
(g10
S'\xae\x80<Gw]\x93@'
p669
tp670
Rp671
aI1
aa(lp672
g2
ag21
ag40
ag5
ag6
(g10
S'\x0b,\xc3\xe3\xb1\x12\x93@'
p673
tp674
Rp675
aI1
aa(lp676
g2
ag21
ag22
ag27
ag6
(g10
S'\xbf-S\x84\x97$\x95@'
p677
tp678
Rp679
aI0
aa(lp680
g2
ag21
ag4
ag5
ag6
(g10
S'\xf5\tX?j\x14\x93@'
p681
tp682
Rp683
aI1
aa(lp684
g2
ag21
ag4
ag5
ag6
(g10
S'\x93\xe9\x81l\xd8\xe9\x92@'
p685
tp686
Rp687
aI1
aa.