(lp0
(lp1
S'blocked'
p2
aS'short'
p3
aS'house'
p4
aS'absent'
p5
acnumpy.core.multiarray
scalar
p6
(cnumpy
dtype
p7
(S'f8'
p8
I0
I1
tp9
Rp10
(I3
S'<'
p11
NNNI-1
I-1
I0
tp12
bS'\xf4\xdf\xb7\xc3\x82!\x97@'
p13
tp14
Rp15
aI1
aa(lp16
g2
ag3
aS'letter'
p17
ag5
ag6
(g10
S'\xa4s\t+\x86\x17\x92@'
p18
tp19
Rp20
aI1
aa(lp21
g2
ag3
aS'face'
p22
ag5
ag6
(g10
S'\xdd\x8f`)U\xa0\x96@'
p23
tp24
Rp25
aI1
aa(lp26
g2
ag3
ag17
aS'present'
p27
ag6
(g10
S'\x0c!\n\xec\xe3\xc9\x94@'
p28
tp29
Rp30
aI1
aa(lp31
g2
ag3
ag22
ag5
ag6
(g10
S'O\x93\xd5oo\xe4\x8c@'
p32
tp33
Rp34
aI0
aa(lp35
g2
ag3
ag4
ag27
ag6
(g10
S'\xd8\x1c\x04\x1d\x9c\xa5\x92@'
p36
tp37
Rp38
aI1
aa(lp39
g2
ag3
ag4
ag5
ag6
(g10
S'\xf5P\x01k\x9d\xee\x91@'
p40
tp41
Rp42
aI0
aa(lp43
g2
ag3
ag22
ag27
ag6
(g10
S';1\r\xea\xe5\t\x8f@'
p44
tp45
Rp46
aI1
aa(lp47
g2
ag3
ag17
ag27
ag6
(g10
S'n\xf4\x07\xba\x88I\x90@'
p48
tp49
Rp50
aI1
aa(lp51
g2
ag3
ag4
ag27
ag6
(g10
S'\x10\xe74\xe6a_\x91@'
p52
tp53
Rp54
aI1
aa(lp55
g2
ag3
ag22
ag5
ag6
(g10
S'\x02\xfaC/\xe4k\x97@'
p56
tp57
Rp58
aI1
aa(lp59
g2
ag3
ag22
ag27
ag6
(g10
S'!\xcf\x1c+Q|\x90@'
p60
tp61
Rp62
aI1
aa(lp63
g2
ag3
ag17
ag27
ag6
(g10
S'y\xc6\xd4&\x00\xb0\x90@'
p64
tp65
Rp66
aI1
aa(lp67
g2
ag3
ag22
ag27
ag6
(g10
S'I\x81\xc4~tR\x8c@'
p68
tp69
Rp70
aI0
aa(lp71
g2
ag3
ag22
ag5
ag6
(g10
S'\xac\xf5\x83y[\xb4\x95@'
p72
tp73
Rp74
aI1
aa(lp75
g2
ag3
ag22
ag5
ag6
(g10
S'\xa2\xa7\xe6\xeex\xff\x96@'
p76
tp77
Rp78
aI0
aa(lp79
g2
ag3
ag22
ag27
ag6
(g10
S'\n\x18I4\xcf\xb3\x8e@'
p80
tp81
Rp82
aI1
aa(lp83
g2
ag3
ag17
ag5
ag6
(g10
S'.1jx\xfb\x07\x92@'
p84
tp85
Rp86
aI1
aa(lp87
g2
ag3
ag4
ag5
ag6
(g10
S'Sl\xb3-h\x89\x95@'
p88
tp89
Rp90
aI0
aa(lp91
g2
ag3
ag22
ag27
ag6
(g10
S'o\xe8R\xcf\x9a\x1e\x8e@'
p92
tp93
Rp94
aI0
aa(lp95
g2
ag3
ag4
ag5
ag6
(g10
S'\xee\xb5\xc3\x96i1\x97@'
p96
tp97
Rp98
aI0
aa(lp99
g2
ag3
ag22
ag5
ag6
(g10
S"\x9eG'\xf6{/\x91@"
p100
tp101
Rp102
aI1
aa(lp103
g2
ag3
ag17
ag27
ag6
(g10
S'\x1e8\xd3`\x04\x8a\x91@'
p104
tp105
Rp106
aI0
aa(lp107
g2
ag3
ag4
ag5
ag6
(g10
S'\xd5\x8e\x05\xbc&\x90\x95@'
p108
tp109
Rp110
aI1
aa(lp111
g2
ag3
ag4
ag27
ag6
(g10
S'\x8e\xbb\xc8k\x91u\x95@'
p112
tp113
Rp114
aI0
aa(lp115
g2
ag3
ag4
ag27
ag6
(g10
S'\xf0\x9b\xf8|89\x91@'
p116
tp117
Rp118
aI1
aa(lp119
g2
ag3
ag17
ag5
ag6
(g10
S'\xb6h\xe2\xda\x13\x04\x97@'
p120
tp121
Rp122
aI1
aa(lp123
g2
ag3
ag17
ag5
ag6
(g10
S'`\x84\x14a\xe7\xb5\x96@'
p124
tp125
Rp126
aI1
aa(lp127
g2
ag3
ag17
ag5
ag6
(g10
S'\xa8\xa8\x1b\x84G2\x94@'
p128
tp129
Rp130
aI0
aa(lp131
g2
ag3
ag4
ag5
ag6
(g10
S'\xaa\x80\x0bU\xbe\x7f\x93@'
p132
tp133
Rp134
aI1
aa(lp135
g2
ag3
ag4
ag27
ag6
(g10
S"]'\x08\x01\x81N\x97@"
p136
tp137
Rp138
aI0
aa(lp139
g2
ag3
ag17
ag27
ag6
(g10
S'\xb5\xf9?\x97\xcc\xf2\x93@'
p140
tp141
Rp142
aI0
aa(lp143
g2
ag3
ag22
ag27
ag6
(g10
S'0\xa0\r7\x1f\xc3\x91@'
p144
tp145
Rp146
aI0
aa(lp147
g2
ag3
ag17
ag5
ag6
(g10
S'nM\x02\xae\xcd \x93@'
p148
tp149
Rp150
aI0
aa(lp151
g2
ag3
ag22
ag27
ag6
(g10
S'\xd4\xbb\xb6\xc4\x02\xd4\x96@'
p152
tp153
Rp154
aI1
aa(lp155
g2
ag3
ag17
ag5
ag6
(g10
S"4\x1a\xd6'\xc2+\x95@"
p156
tp157
Rp158
aI1
aa(lp159
g2
ag3
ag4
ag5
ag6
(g10
S'\x00AU|\xab\xcd\x96@'
p160
tp161
Rp162
aI1
aa(lp163
g2
ag3
ag22
ag5
ag6
(g10
S'4\x99P)\x83\xce\x94@'
p164
tp165
Rp166
aI0
aa(lp167
g2
ag3
ag17
ag5
ag6
(g10
S' +\xadH\x7f\x7f\x90@'
p168
tp169
Rp170
aI0
aa(lp171
g2
ag3
ag22
ag27
ag6
(g10
S'\tG\xaez\x88\xad\x96@'
p172
tp173
Rp174
aI1
aa(lp175
g2
ag3
ag4
ag27
ag6
(g10
S'\xceJ\x0c\n\x95\n\x96@'
p176
tp177
Rp178
aI1
aa(lp179
g2
ag3
ag4
ag5
ag6
(g10
S'\xc2k\xcb\xe9\xa1\xa7\x91@'
p180
tp181
Rp182
aI0
aa(lp183
g2
ag3
ag17
ag27
ag6
(g10
S' \t1\x04|\xcb\x94@'
p184
tp185
Rp186
aI1
aa(lp187
g2
ag3
ag17
ag27
ag6
(g10
S'\xca<\x1c\x88jK\x91@'
p188
tp189
Rp190
aI1
aa(lp191
g2
ag3
ag22
ag5
ag6
(g10
S'\x06LY\xdf\x83\xf6\x93@'
p192
tp193
Rp194
aI1
aa(lp195
g2
ag3
ag4
ag27
ag6
(g10
S'\x98\xaf\xd6\x80\xc2U\x96@'
p196
tp197
Rp198
aI1
aa(lp199
g2
ag3
ag17
ag5
ag6
(g10
S'\xa9vV>II\x96@'
p200
tp201
Rp202
aI1
aa(lp203
g2
ag3
ag17
ag27
ag6
(g10
S'\xec\xe5\xb2!y\xc5\x8e@'
p204
tp205
Rp206
aI1
aa(lp207
g2
ag3
ag17
ag5
ag6
(g10
S'P3\x14\x9a\xc6+\x94@'
p208
tp209
Rp210
aI1
aa(lp211
g2
ag3
ag22
ag27
ag6
(g10
S't\xd4\x90\x1c\x17-\x93@'
p212
tp213
Rp214
aI0
aa(lp215
g2
ag3
ag22
ag27
ag6
(g10
S'<q\x08\xe1\xa7\xfe\x8f@'
p216
tp217
Rp218
aI0
aa(lp219
g2
ag3
ag4
ag5
ag6
(g10
S'\x07\xa9\xd8.\xe6\xa7\x96@'
p220
tp221
Rp222
aI1
aa(lp223
g2
ag3
ag4
ag27
ag6
(g10
S"'p?\xef\x1e\xb1\x93@"
p224
tp225
Rp226
aI1
aa(lp227
g2
ag3
ag22
ag27
ag6
(g10
S'-\xda\xb0\x8f\x19\x9c\x8d@'
p228
tp229
Rp230
aI0
aa(lp231
g2
ag3
ag4
ag27
ag6
(g10
S'\xce1\xde\xb16\xb6\x8d@'
p232
tp233
Rp234
aI0
aa(lp235
g2
ag3
ag4
ag27
ag6
(g10
S':1\x19\xcfE\x8f\x90@'
p236
tp237
Rp238
aI1
aa(lp239
g2
ag3
ag22
ag5
ag6
(g10
S'\xed\xefqAz\xdb\x92@'
p240
tp241
Rp242
aI0
aa(lp243
g2
ag3
ag22
ag5
ag6
(g10
S'\xb9\x11\x9c\xfb\xa2\xb1\x95@'
p244
tp245
Rp246
aI1
aa(lp247
g2
ag3
ag17
ag27
ag6
(g10
S'\xbb\xa6\x17\xd4*H\x96@'
p248
tp249
Rp250
aI1
aa(lp251
g2
ag3
ag22
ag27
ag6
(g10
S'\xfc\xaa\xef\xb6\x8a\x82\x96@'
p252
tp253
Rp254
aI1
aa(lp255
g2
ag3
ag17
ag27
ag6
(g10
S'\xe8qv\x19\xb6\x87\x96@'
p256
tp257
Rp258
aI1
aa(lp259
g2
ag3
ag22
ag5
ag6
(g10
S'\x98E\xe0\t\xd1V\x92@'
p260
tp261
Rp262
aI1
aa(lp263
g2
ag3
ag22
ag27
ag6
(g10
S'\x02\xa6\xb6t\xbf\xda\x96@'
p264
tp265
Rp266
aI1
aa(lp267
g2
ag3
ag22
ag5
ag6
(g10
S'\xd8\xcd m`\x15\x8f@'
p268
tp269
Rp270
aI0
aa(lp271
g2
ag3
ag22
ag27
ag6
(g10
S'.\xd1\xd82\x1fm\x96@'
p272
tp273
Rp274
aI0
aa(lp275
g2
ag3
ag22
ag5
ag6
(g10
S'\xe8\xba\xcc\x1e*\xda\x96@'
p276
tp277
Rp278
aI1
aa(lp279
g2
ag3
ag4
ag27
ag6
(g10
S'\xb3\x87\xa8[\xe2\x9c\x96@'
p280
tp281
Rp282
aI0
aa(lp283
g2
ag3
ag22
ag5
ag6
(g10
S'\xd2\xb7>\x02\xc1\x82\x91@'
p284
tp285
Rp286
aI0
aa(lp287
g2
ag3
ag17
ag27
ag6
(g10
S'\xfa>n\x0bv\xe4\x91@'
p288
tp289
Rp290
aI0
aa(lp291
g2
ag3
ag4
ag5
ag6
(g10
S'\x96\x93\x14\xb6_V\x92@'
p292
tp293
Rp294
aI1
aa(lp295
g2
ag3
ag4
ag27
ag6
(g10
S'\x0e\xf1\xe1v1.\x91@'
p296
tp297
Rp298
aI1
aa(lp299
g2
ag3
ag22
ag5
ag6
(g10
S'\xa7]\xe2jh\x14\x93@'
p300
tp301
Rp302
aI0
aa(lp303
g2
ag3
ag4
ag27
ag6
(g10
S'\xcd]\x1f\x1b\xd5d\x92@'
p304
tp305
Rp306
aI0
aa(lp307
g2
ag3
ag4
ag5
ag6
(g10
S'9\xed3\x1b\xbb\xfb\x8c@'
p308
tp309
Rp310
aI1
aa(lp311
g2
ag3
ag22
ag27
ag6
(g10
S'\xde\x19\xdb\xb3j>\x97@'
p312
tp313
Rp314
aI1
aa(lp315
g2
ag3
ag17
ag5
ag6
(g10
S'v6\xb4\x88\x0c\x88\x95@'
p316
tp317
Rp318
aI1
aa(lp319
g2
ag3
ag17
ag5
ag6
(g10
S'^#/J\x15\xa8\x95@'
p320
tp321
Rp322
aI0
aa(lp323
g2
ag3
ag17
ag27
ag6
(g10
S'5\x11Pw7D\x96@'
p324
tp325
Rp326
aI1
aa(lp327
g2
ag3
ag4
ag27
ag6
(g10
S'\xfd\n\x93@\xd4\xf9\x95@'
p328
tp329
Rp330
aI0
aa(lp331
g2
ag3
ag4
ag5
ag6
(g10
S",B1\xc7'w\x96@"
p332
tp333
Rp334
aI0
aa(lp335
g2
ag3
ag17
ag5
ag6
(g10
S'.\xc7ne_4\x95@'
p336
tp337
Rp338
aI1
aa(lp339
g2
ag3
ag4
ag27
ag6
(g10
S'q\x93\xa5}\x12!\x8c@'
p340
tp341
Rp342
aI1
aa(lp343
g2
ag3
ag4
ag27
ag6
(g10
S'\x97\xd8\xf5\xbck\x89\x92@'
p344
tp345
Rp346
aI1
aa(lp347
g2
ag3
ag22
ag5
ag6
(g10
S'\x07W\x98\xe8\xae\xf4\x96@'
p348
tp349
Rp350
aI0
aa(lp351
g2
ag3
ag17
ag27
ag6
(g10
S'\x16\x7f)|^\x93\x93@'
p352
tp353
Rp354
aI0
aa(lp355
g2
ag3
ag4
ag5
ag6
(g10
S'\x8b*\x86\xcd\xf4\xa8\x96@'
p356
tp357
Rp358
aI1
aa(lp359
g2
ag3
ag4
ag27
ag6
(g10
S'\xdc\x82\xbe\xa5\xe7\xdc\x92@'
p360
tp361
Rp362
aI1
aa(lp363
g2
ag3
ag17
ag5
ag6
(g10
S'\xce\xaeC[\xc2\xcb\x95@'
p364
tp365
Rp366
aI1
aa(lp367
g2
ag3
ag17
ag5
ag6
(g10
S'E\xe8:\xc2\xad\xe1\x8f@'
p368
tp369
Rp370
aI1
aa(lp371
g2
ag3
ag22
ag27
ag6
(g10
S'z\xc89|^\xe8\x93@'
p372
tp373
Rp374
aI1
aa(lp375
g2
ag3
ag17
ag5
ag6
(g10
S'\x89E\x0b\xff\xf8b\x93@'
p376
tp377
Rp378
aI0
aa(lp379
g2
ag3
ag4
ag5
ag6
(g10
S'\xec\x0b|AI\xf1\x94@'
p380
tp381
Rp382
aI1
aa(lp383
g2
ag3
ag4
ag5
ag6
(g10
S'\x1c\x83J\x18J\xb2\x8f@'
p384
tp385
Rp386
aI0
aa(lp387
g2
ag3
ag22
ag5
ag6
(g10
S'\xfe\x87\xcbqh\xe3\x91@'
p388
tp389
Rp390
aI1
aa(lp391
g2
ag3
ag22
ag27
ag6
(g10
S'a\x86\x8e\\\xb8\x08\x8f@'
p392
tp393
Rp394
aI1
aa(lp395
g2
ag3
ag17
ag27
ag6
(g10
S'\xc4\xac\xa77t\x8a\x92@'
p396
tp397
Rp398
aI1
aa(lp399
g2
ag3
ag22
ag5
ag6
(g10
S'\xa5\x8e\xe9\x1c\x10R\x93@'
p400
tp401
Rp402
aI1
aa(lp403
g2
ag3
ag4
ag27
ag6
(g10
S'\x0b\xdc\xaf^\x8d\x08\x94@'
p404
tp405
Rp406
aI1
aa(lp407
g2
ag3
ag17
ag27
ag6
(g10
S'\xf8\xfd\xfaQ\xcdE\x8e@'
p408
tp409
Rp410
aI0
aa(lp411
g2
ag3
ag22
ag5
ag6
(g10
S'\x9c\xf1\xe4#\xda\xb9\x94@'
p412
tp413
Rp414
aI0
aa(lp415
g2
ag3
ag17
ag5
ag6
(g10
S'\x99\xe5\x8b\xfd\x11\xdd\x93@'
p416
tp417
Rp418
aI1
aa(lp419
g2
ag3
ag22
ag5
ag6
(g10
S'\x88\xc3\x8f=\xfa>\x8d@'
p420
tp421
Rp422
aI1
aa(lp423
g2
ag3
ag17
ag27
ag6
(g10
S'\xa6L\xd0\x12\t/\x90@'
p424
tp425
Rp426
aI1
aa(lp427
g2
ag3
ag4
ag27
ag6
(g10
S'\x1c\xa2\xba\xdd7\xb6\x8d@'
p428
tp429
Rp430
aI1
aa(lp431
g2
ag3
ag17
ag5
ag6
(g10
S'\xca\x0693B\xd5\x91@'
p432
tp433
Rp434
aI0
aa(lp435
g2
ag3
ag4
ag5
ag6
(g10
S'X\x9b\x9f^\x8e\xa6\x93@'
p436
tp437
Rp438
aI1
aa(lp439
g2
ag3
ag17
ag5
ag6
(g10
S'\xff\xab!\x87\x01\xd0\x93@'
p440
tp441
Rp442
aI1
aa(lp443
g2
ag3
ag22
ag27
ag6
(g10
S'-\t\xd1\xe1!V\x94@'
p444
tp445
Rp446
aI0
aa(lp447
g2
ag3
ag22
ag5
ag6
(g10
S'$\xfc\xef\x1bs\xc2\x94@'
p448
tp449
Rp450
aI0
aa(lp451
g2
ag3
ag17
ag27
ag6
(g10
S'\xee\xd0\x96F\x94\xd2\x93@'
p452
tp453
Rp454
aI0
aa(lp455
g2
ag3
ag4
ag27
ag6
(g10
S'\x1b\x93a\x7f?S\x91@'
p456
tp457
Rp458
aI1
aa(lp459
g2
ag3
ag4
ag5
ag6
(g10
S"'\xf0\xbe\x16\x8d}\x92@"
p460
tp461
Rp462
aI1
aa(lp463
g2
ag3
ag22
ag5
ag6
(g10
S'\x8e\x0evIla\x94@'
p464
tp465
Rp466
aI0
aa(lp467
g2
ag3
ag22
ag27
ag6
(g10
S' Db\\z#\x92@'
p468
tp469
Rp470
aI0
aa(lp471
g2
ag3
ag4
ag5
ag6
(g10
S'ye\xa2a5\t\x94@'
p472
tp473
Rp474
aI1
aa(lp475
g2
ag3
ag22
ag5
ag6
(g10
S'\xd6\x17@\xa5;l\x96@'
p476
tp477
Rp478
aI0
aa(lp479
g2
ag3
ag22
ag5
ag6
(g10
S'@V`e\x8a\xf7\x94@'
p480
tp481
Rp482
aI0
aa(lp483
g2
ag3
ag22
ag27
ag6
(g10
S'\xdf\xba\xc6\xb0\xc8\x0b\x8e@'
p484
tp485
Rp486
aI0
aa(lp487
g2
ag3
ag17
ag5
ag6
(g10
S'\xc3\xbb\x9a\x08T\xbd\x8d@'
p488
tp489
Rp490
aI1
aa(lp491
g2
ag3
ag17
ag5
ag6
(g10
S'D9Pwab\x96@'
p492
tp493
Rp494
aI1
aa(lp495
g2
ag3
ag17
ag5
ag6
(g10
S'G\xf3\x11\x98K\xe1\x91@'
p496
tp497
Rp498
aI1
aa(lp499
g2
ag3
ag22
ag27
ag6
(g10
S'\xc2\x06A\x00\x80/\x96@'
p500
tp501
Rp502
aI0
aa(lp503
g2
ag3
ag22
ag5
ag6
(g10
S'n\xaaf\x95\xb0\x0b\x91@'
p504
tp505
Rp506
aI1
aa(lp507
g2
ag3
ag17
ag27
ag6
(g10
S'F\xc1\xde\x857?\x91@'
p508
tp509
Rp510
aI1
aa(lp511
g2
ag3
ag17
ag27
ag6
(g10
S'\xa7z\xe5\xb9O;\x8d@'
p512
tp513
Rp514
aI1
aa(lp515
g2
ag3
ag17
ag5
ag6
(g10
S'\x08\xcasa\xf8\x00\x92@'
p516
tp517
Rp518
aI0
aa(lp519
g2
ag3
ag4
ag27
ag6
(g10
S'\xc1=[S\xc7D\x91@'
p520
tp521
Rp522
aI0
aa(lp523
g2
ag3
ag22
ag5
ag6
(g10
S'\xf3\xb5\xfd6\x9e\xea\x91@'
p524
tp525
Rp526
aI1
aa(lp527
g2
ag3
ag22
ag27
ag6
(g10
S'\xde=g\xf6\x87\xcf\x95@'
p528
tp529
Rp530
aI1
aa(lp531
g2
ag3
ag17
ag5
ag6
(g10
S'\x0c\xc9\x98/\xfa\xe8\x8f@'
p532
tp533
Rp534
aI1
aa(lp535
g2
ag3
ag17
ag27
ag6
(g10
S'\xce\x8e+JJ"\x94@'
p536
tp537
Rp538
aI1
aa(lp539
g2
ag3
ag17
ag5
ag6
(g10
S'\x9e\xf4\xd3.68\x94@'
p540
tp541
Rp542
aI0
aa(lp543
g2
ag3
ag4
ag5
ag6
(g10
S'\xb7w+De\xb8\x94@'
p544
tp545
Rp546
aI1
aa(lp547
g2
ag3
ag4
ag5
ag6
(g10
S'\x83\xff\xea`\xda|\x92@'
p548
tp549
Rp550
aI1
aa(lp551
g2
ag3
ag17
ag5
ag6
(g10
S'~\x9at\xbf)\x9a\x95@'
p552
tp553
Rp554
aI1
aa(lp555
g2
ag3
ag4
ag27
ag6
(g10
S'\x0chn\xee\xc1B\x8d@'
p556
tp557
Rp558
aI1
aa(lp559
g2
ag3
ag4
ag5
ag6
(g10
S'\xaf9M\xd5\x91\xc7\x94@'
p560
tp561
Rp562
aI0
aa(lp563
g2
ag3
ag4
ag27
ag6
(g10
S'"\xe5Y\xc0\xd7\x94\x90@'
p564
tp565
Rp566
aI1
aa(lp567
g2
ag3
ag22
ag5
ag6
(g10
S'\xa5Z#F\xdd\xf5\x8e@'
p568
tp569
Rp570
aI0
aa(lp571
g2
ag3
ag17
ag5
ag6
(g10
S'\x0b\x01\x04h\x83\x13\x91@'
p572
tp573
Rp574
aI1
aa(lp575
g2
ag3
ag17
ag27
ag6
(g10
S'\x86\x0b\xd6k\xb8\xc7\x94@'
p576
tp577
Rp578
aI0
aa(lp579
g2
ag3
ag17
ag27
ag6
(g10
S'\xfcB\xd6\x85i_\x91@'
p580
tp581
Rp582
aI1
aa(lp583
g2
ag3
ag4
ag5
ag6
(g10
S'\x90V\xc8{\t"\x93@'
p584
tp585
Rp586
aI1
aa(lp587
g2
ag3
ag17
ag27
ag6
(g10
S'=9O\xae~d\x90@'
p588
tp589
Rp590
aI1
aa(lp591
g2
ag3
ag17
ag5
ag6
(g10
S';C\xea\xdf`\xb8\x96@'
p592
tp593
Rp594
aI1
aa(lp595
g2
ag3
ag22
ag5
ag6
(g10
S'\x91%\x7ffb\xda\x92@'
p596
tp597
Rp598
aI0
aa(lp599
g2
ag3
ag22
ag5
ag6
(g10
S'\x86\x80\x97?\x04\x99\x90@'
p600
tp601
Rp602
aI1
aa(lp603
g2
ag3
ag4
ag5
ag6
(g10
S'\x04m\xf6\x90\xec\xe6\x91@'
p604
tp605
Rp606
aI0
aa(lp607
g2
ag3
ag22
ag27
ag6
(g10
S'\x8a\x0c\xdbs\xd7\x1a\x90@'
p608
tp609
Rp610
aI1
aa(lp611
g2
ag3
ag22
ag27
ag6
(g10
S'B\xd3\xe4\x99E\xa6\x8e@'
p612
tp613
Rp614
aI1
aa(lp615
g2
ag3
ag4
ag27
ag6
(g10
S'2$\x1c$Q\\\x94@'
p616
tp617
Rp618
aI1
aa(lp619
g2
ag3
ag22
ag5
ag6
(g10
S'\xf9\xa1\xea\x08\x03\x14\x93@'
p620
tp621
Rp622
aI0
aa(lp623
g2
ag3
ag22
ag5
ag6
(g10
S'\xe6eI0\x939\x96@'
p624
tp625
Rp626
aI0
aa(lp627
g2
ag3
ag22
ag27
ag6
(g10
S'h\xae\xca\xa9LM\x92@'
p628
tp629
Rp630
aI0
aa(lp631
g2
ag3
ag4
ag27
ag6
(g10
S'\xb8\x0by\xfb\x8aL\x96@'
p632
tp633
Rp634
aI0
aa(lp635
g2
ag3
ag4
ag27
ag6
(g10
S'\xed!\x9f|8\x02\x94@'
p636
tp637
Rp638
aI1
aa(lp639
g2
ag3
ag17
ag5
ag6
(g10
S'>\x99\x8f\xc4\xaa\xfa\x92@'
p640
tp641
Rp642
aI0
aa(lp643
g2
ag3
ag4
ag27
ag6
(g10
S'\xa5\xbcBZCq\x96@'
p644
tp645
Rp646
aI0
aa(lp647
g2
ag3
ag4
ag27
ag6
(g10
S'\xf2\xb9\xf0h\xa5\x15\x91@'
p648
tp649
Rp650
aI1
aa(lp651
g2
ag3
ag4
ag5
ag6
(g10
S'Q\x86\xfd/?\x8b\x8d@'
p652
tp653
Rp654
aI1
aa(lp655
g2
ag3
ag4
ag5
ag6
(g10
S'0\x97S\xcf\xf5\xf3\x92@'
p656
tp657
Rp658
aI0
aa(lp659
g2
ag3
ag17
ag27
ag6
(g10
S'v\x10\xc1\t\xa9\xda\x96@'
p660
tp661
Rp662
aI1
aa(lp663
g2
ag3
ag17
ag5
ag6
(g10
S'\\\x13\xae\xa3}\xad\x96@'
p664
tp665
Rp666
aI1
aa(lp667
g2
ag3
ag4
ag5
ag6
(g10
S'\x07\xc8ZN\xc5\x83\x8f@'
p668
tp669
Rp670
aI1
aa(lp671
g2
ag3
ag17
ag27
ag6
(g10
S'\x92\xda4\xe7\x8a9\x95@'
p672
tp673
Rp674
aI1
aa(lp675
g2
ag3
ag4
ag27
ag6
(g10
S'@\xe1\xc3.\xdcn\x94@'
p676
tp677
Rp678
aI1
aa(lp679
g2
ag3
ag4
ag5
ag6
(g10
S'\x80\x81F\xd8\xdb\xe8\x8e@'
p680
tp681
Rp682
aI0
aa(lp683
g2
ag3
ag17
ag27
ag6
(g10
S'\x85\x9c\xd4&\xbd\xc0\x90@'
p684
tp685
Rp686
aI1
aa.