(lp0
(lp1
S'short'
p2
ag2
aS'house'
p3
aS'absent'
p4
acnumpy.core.multiarray
scalar
p5
(cnumpy
dtype
p6
(S'f8'
p7
I0
I1
tp8
Rp9
(I3
S'<'
p10
NNNI-1
I-1
I0
tp11
bS'\x86\x1f\xb0\x0c\x8al\x95@'
p12
tp13
Rp14
aI1
aa(lp15
g2
ag2
ag3
aS'present'
p16
ag5
(g9
S'\xc1u\xe8\xe3\x81\x9a\x8f@'
p17
tp18
Rp19
aI1
aa(lp20
g2
ag2
aS'letter'
p21
ag4
ag5
(g9
S'\xcb}\xefT:%\x92@'
p22
tp23
Rp24
aI1
aa(lp25
g2
ag2
ag21
ag4
ag5
(g9
S'&\xf0\x17\xe1\xba\x7f\x92@'
p26
tp27
Rp28
aI1
aa(lp29
g2
ag2
ag3
ag16
ag5
(g9
S'i(`\xad;\x99\x91@'
p30
tp31
Rp32
aI0
aa(lp33
g2
ag2
aS'face'
p34
ag4
ag5
(g9
S'R\x8d\n\xea&\xee\x91@'
p35
tp36
Rp37
aI0
aa(lp38
g2
ag2
ag34
ag16
ag5
(g9
S'&\xae\xe8\xc3\xb1Q\x96@'
p39
tp40
Rp41
aI0
aa(lp42
g2
ag2
ag34
ag16
ag5
(g9
S'*\xack\x08\x8cM\x8e@'
p43
tp44
Rp45
aI0
aa(lp46
g2
ag2
ag21
ag4
ag5
(g9
S'\r\xd0\xfb3\x83\xab\x90@'
p47
tp48
Rp49
aI1
aa(lp50
g2
ag2
ag34
ag4
ag5
(g9
S'\xfe\x83\x10!\xee>\x93@'
p51
tp52
Rp53
aI0
aa(lp54
g2
ag2
ag3
ag16
ag5
(g9
S'r}\x0b\xf3\x80q\x92@'
p55
tp56
Rp57
aI0
aa(lp58
g2
ag2
ag3
ag16
ag5
(g9
S'\xc0k\xd2\xbe)\x19\x96@'
p59
tp60
Rp61
aI1
aa(lp62
g2
ag2
ag3
ag4
ag5
(g9
S'n\xb8\xaf\xc0\xe6n\x90@'
p63
tp64
Rp65
aI1
aa(lp66
g2
ag2
ag34
ag4
ag5
(g9
S'\xe73\x8a^\xfc\x08\x94@'
p67
tp68
Rp69
aI0
aa(lp70
g2
ag2
ag21
ag4
ag5
(g9
S'\xcc5\xdeu\xc9\x98\x90@'
p71
tp72
Rp73
aI1
aa(lp74
g2
ag2
ag34
ag16
ag5
(g9
S'\xdd\x1d\xb8\xd4f;\x93@'
p75
tp76
Rp77
aI1
aa(lp78
g2
ag2
ag21
ag16
ag5
(g9
S'\xc7p{\xc9\xb0\xdf\x91@'
p79
tp80
Rp81
aI0
aa(lp82
g2
ag2
ag21
ag4
ag5
(g9
S'L\xf2a20f\x97@'
p83
tp84
Rp85
aI0
aa(lp86
g2
ag2
ag21
ag4
ag5
(g9
S'v\xcd\x99F\xdd;\x8e@'
p87
tp88
Rp89
aI0
aa(lp90
g2
ag2
ag21
ag4
ag5
(g9
S'\xe4\x0e\xcb\x0fj\x98\x94@'
p91
tp92
Rp93
aI1
aa(lp94
g2
ag2
ag21
ag16
ag5
(g9
S'\x96\t\x0e\xa3\x11F\x94@'
p95
tp96
Rp97
aI1
aa(lp98
g2
ag2
ag34
ag16
ag5
(g9
S'\xc0B\x13\xf4\xa7z\x95@'
p99
tp100
Rp101
aI0
aa(lp102
g2
ag2
ag21
ag4
ag5
(g9
S'\xd8\xe92\xbfa\x01\x90@'
p103
tp104
Rp105
aI1
aa(lp106
g2
ag2
ag3
ag16
ag5
(g9
S'\xf0*\xafr\x9f\x1d\x97@'
p107
tp108
Rp109
aI0
aa(lp110
g2
ag2
ag34
ag16
ag5
(g9
S'\x0ey\x18\xb4\xcd\xd6\x94@'
p111
tp112
Rp113
aI1
aa(lp114
g2
ag2
ag21
ag4
ag5
(g9
S'[\xff`\xa4\xc9b\x97@'
p115
tp116
Rp117
aI1
aa(lp118
g2
ag2
ag21
ag4
ag5
(g9
S'd\xa9e)"\xf3\x91@'
p119
tp120
Rp121
aI1
aa(lp122
g2
ag2
ag3
ag4
ag5
(g9
S' \xf5\x8c\x96\xef\xa6\x8d@'
p123
tp124
Rp125
aI0
aa(lp126
g2
ag2
ag3
ag4
ag5
(g9
S'\xa0L\x8eI\x17\xf5\x91@'
p127
tp128
Rp129
aI0
aa(lp130
g2
ag2
ag21
ag16
ag5
(g9
S'(?\t\xd6b\xe4\x92@'
p131
tp132
Rp133
aI1
aa(lp134
g2
ag2
ag21
ag16
ag5
(g9
S'\xbeC\xe6\x0fz\x1a\x94@'
p135
tp136
Rp137
aI0
aa(lp138
g2
ag2
ag3
ag16
ag5
(g9
S'n/\x17\xc8>4\x8c@'
p139
tp140
Rp141
aI1
aa(lp142
g2
ag2
ag3
ag4
ag5
(g9
S'X5\xcaUs\x94\x91@'
p143
tp144
Rp145
aI1
aa(lp146
g2
ag2
ag34
ag16
ag5
(g9
S'/\x82\x8f\x16c\x08\x95@'
p147
tp148
Rp149
aI1
aa(lp150
g2
ag2
ag3
ag4
ag5
(g9
S'\x10\x7f\xdf2\x94d\x93@'
p151
tp152
Rp153
aI1
aa(lp154
g2
ag2
ag34
ag16
ag5
(g9
S'\xab\xd3B\x88^i\x96@'
p155
tp156
Rp157
aI0
aa(lp158
g2
ag2
ag34
ag16
ag5
(g9
S'r\xd7\xa0\xcf\xb3\x1a\x90@'
p159
tp160
Rp161
aI1
aa(lp162
g2
ag2
ag21
ag16
ag5
(g9
S'\xf0\x8c\xfdS6\n\x95@'
p163
tp164
Rp165
aI1
aa(lp166
g2
ag2
ag3
ag4
ag5
(g9
S'\xc8M\xe9\x82\x00\x9b\x90@'
p167
tp168
Rp169
aI0
aa(lp170
g2
ag2
ag34
ag4
ag5
(g9
S'5w\x02}T*\x90@'
p171
tp172
Rp173
aI0
aa(lp174
g2
ag2
ag3
ag4
ag5
(g9
S'Q8|\x99\xc6D\x97@'
p175
tp176
Rp177
aI1
aa(lp178
g2
ag2
ag34
ag16
ag5
(g9
S'\xeb\xa4\xb4\x9b\xf1\xb0\x8e@'
p179
tp180
Rp181
aI1
aa(lp182
g2
ag2
ag3
ag4
ag5
(g9
S'\x9a\x01%\xf1L[\x91@'
p183
tp184
Rp185
aI1
aa(lp186
g2
ag2
ag3
ag16
ag5
(g9
S'9$<\xf1\xa1K\x96@'
p187
tp188
Rp189
aI0
aa(lp190
g2
ag2
ag3
ag4
ag5
(g9
S'8\xe2\n\xddZl\x93@'
p191
tp192
Rp193
aI1
aa(lp194
g2
ag2
ag3
ag16
ag5
(g9
S'\x13d\x94\xb80\x82\x8c@'
p195
tp196
Rp197
aI0
aa(lp198
g2
ag2
ag3
ag4
ag5
(g9
S'\xb0\x94\x8f\x82\x89W\x97@'
p199
tp200
Rp201
aI1
aa(lp202
g2
ag2
ag34
ag4
ag5
(g9
S'.-\r\xfe;\xcb\x91@'
p203
tp204
Rp205
aI0
aa(lp206
g2
ag2
ag3
ag16
ag5
(g9
S'$\x8e\xd1%/\x94\x95@'
p207
tp208
Rp209
aI1
aa(lp210
g2
ag2
ag21
ag4
ag5
(g9
S'QYR\x90\xf0A\x97@'
p211
tp212
Rp213
aI1
aa(lp214
g2
ag2
ag3
ag4
ag5
(g9
S'cU\xc0<[\xc2\x8d@'
p215
tp216
Rp217
aI1
aa(lp218
g2
ag2
ag3
ag16
ag5
(g9
S'\xbd\x8ar\x12G\x14\x95@'
p219
tp220
Rp221
aI1
aa(lp222
g2
ag2
ag34
ag4
ag5
(g9
S'\xfc<\x97\x17H\xb9\x8c@'
p223
tp224
Rp225
aI0
aa(lp226
g2
ag2
ag34
ag4
ag5
(g9
S'\\q\xa8\x9e:\x02\x90@'
p227
tp228
Rp229
aI1
aa(lp230
g2
ag2
ag34
ag4
ag5
(g9
S'\xb7\xea\x1cR\xbe\x0b\x95@'
p231
tp232
Rp233
aI0
aa(lp234
g2
ag2
ag3
ag4
ag5
(g9
S'\xecIsWk\xeb\x91@'
p235
tp236
Rp237
aI0
aa(lp238
g2
ag2
ag34
ag16
ag5
(g9
S'E\xa9\xe5\xe7\x01;\x97@'
p239
tp240
Rp241
aI1
aa(lp242
g2
ag2
ag34
ag4
ag5
(g9
S'\x92H\xa7\xbb\x89"\x90@'
p243
tp244
Rp245
aI0
aa(lp246
g2
ag2
ag34
ag4
ag5
(g9
S'\x92\xbaR[\xa33\x92@'
p247
tp248
Rp249
aI0
aa(lp250
g2
ag2
ag21
ag4
ag5
(g9
S'"\n\xbb~\x84\xd5\x92@'
p251
tp252
Rp253
aI0
aa(lp254
g2
ag2
ag3
ag16
ag5
(g9
S'\xe2\xb5\xabS0\xa0\x8f@'
p255
tp256
Rp257
aI1
aa(lp258
g2
ag2
ag21
ag4
ag5
(g9
S'\xbc\xf7\xe9f\x97\xc1\x96@'
p259
tp260
Rp261
aI1
aa(lp262
g2
ag2
ag21
ag4
ag5
(g9
S'\xf9\xa6PS\xbe\xf4\x96@'
p263
tp264
Rp265
aI0
aa(lp266
g2
ag2
ag3
ag4
ag5
(g9
S'w\x9cl\xae\xca=\x93@'
p267
tp268
Rp269
aI0
aa(lp270
g2
ag2
ag3
ag16
ag5
(g9
S'\x1e[bu\x85s\x8f@'
p271
tp272
Rp273
aI1
aa(lp274
g2
ag2
ag34
ag16
ag5
(g9
S'\xc8C\xed\x8fY\x1c\x8f@'
p275
tp276
Rp277
aI1
aa(lp278
g2
ag2
ag3
ag16
ag5
(g9
S'\xa3M+\xec \x92\x92@'
p279
tp280
Rp281
aI1
aa(lp282
g2
ag2
ag34
ag4
ag5
(g9
S'\xadm\xae\x1e\xc4\x8e\x90@'
p283
tp284
Rp285
aI0
aa(lp286
g2
ag2
ag34
ag16
ag5
(g9
S'\xac\xbfJ\x99\xd8Z\x93@'
p287
tp288
Rp289
aI1
aa(lp290
g2
ag2
ag3
ag4
ag5
(g9
S'5\xa3&\xc9\xcd\xae\x94@'
p291
tp292
Rp293
aI0
aa(lp294
g2
ag2
ag21
ag4
ag5
(g9
S'\xbc\xe7b,\xf6U\x95@'
p295
tp296
Rp297
aI1
aa(lp298
g2
ag2
ag21
ag4
ag5
(g9
S'\x10-T\xf0\x02z\x90@'
p299
tp300
Rp301
aI0
aa(lp302
g2
ag2
ag3
ag16
ag5
(g9
S'm\xa9\xd5\xeb\xdf\x90\x94@'
p303
tp304
Rp305
aI0
aa(lp306
g2
ag2
ag21
ag16
ag5
(g9
S'\xe7E\xc29Jm\x91@'
p307
tp308
Rp309
aI0
aa(lp310
g2
ag2
ag3
ag16
ag5
(g9
S'\xcc\xf2\xd4EX\x13\x90@'
p311
tp312
Rp313
aI0
aa(lp314
g2
ag2
ag34
ag4
ag5
(g9
S']\xcaCZ4\x1c\x94@'
p315
tp316
Rp317
aI1
aa(lp318
g2
ag2
ag21
ag4
ag5
(g9
S'\x9c\xa9\xd1\xb3P$\x92@'
p319
tp320
Rp321
aI1
aa(lp322
g2
ag2
ag34
ag4
ag5
(g9
S'\x8f>\xb9\x96;\xaa\x91@'
p323
tp324
Rp325
aI0
aa(lp326
g2
ag2
ag21
ag16
ag5
(g9
S',]H\xefa\xdf\x92@'
p327
tp328
Rp329
aI0
aa(lp330
g2
ag2
ag21
ag16
ag5
(g9
S'\xa8\x00\x15G\x9b<\x92@'
p331
tp332
Rp333
aI1
aa(lp334
g2
ag2
ag34
ag16
ag5
(g9
S'\x17/\x86\xda\xc5,\x95@'
p335
tp336
Rp337
aI0
aa(lp338
g2
ag2
ag3
ag4
ag5
(g9
S'\x17%\x88\x87m\xda\x94@'
p339
tp340
Rp341
aI1
aa(lp342
g2
ag2
ag34
ag16
ag5
(g9
S'\xd5\x94\xdd\x03\xb8\xdf\x96@'
p343
tp344
Rp345
aI1
aa(lp346
g2
ag2
ag21
ag16
ag5
(g9
S'\x90@\xc4i^*\x94@'
p347
tp348
Rp349
aI1
aa(lp350
g2
ag2
ag34
ag4
ag5
(g9
S'\x98\xdc\xe6\xc3\xbe`\x93@'
p351
tp352
Rp353
aI1
aa(lp354
g2
ag2
ag21
ag4
ag5
(g9
S'\xbf\xd7#VP\xa9\x8e@'
p355
tp356
Rp357
aI0
aa(lp358
g2
ag2
ag34
ag16
ag5
(g9
S'\xfdC\xa3\xa5\xd4\\\x94@'
p359
tp360
Rp361
aI0
aa(lp362
g2
ag2
ag21
ag16
ag5
(g9
S'\xf4\xc5\xb6)w\xee\x91@'
p363
tp364
Rp365
aI0
aa(lp366
g2
ag2
ag21
ag4
ag5
(g9
S'\xc4\xc3\r\x1e\xec\xef\x95@'
p367
tp368
Rp369
aI0
aa(lp370
g2
ag2
ag3
ag16
ag5
(g9
S'&,a\x11\xc3H\x96@'
p371
tp372
Rp373
aI0
aa(lp374
g2
ag2
ag34
ag16
ag5
(g9
S'\x9c\xd4\x16&!\x1d\x96@'
p375
tp376
Rp377
aI1
aa(lp378
g2
ag2
ag21
ag4
ag5
(g9
S'\x07\xfc\x9d\x02^\xd3\x93@'
p379
tp380
Rp381
aI0
aa(lp382
g2
ag2
ag21
ag4
ag5
(g9
S'\xa4\x02\xc2\x00\xe6X\x92@'
p383
tp384
Rp385
aI1
aa(lp386
g2
ag2
ag34
ag16
ag5
(g9
S'\xe4\xd1#|7R\x91@'
p387
tp388
Rp389
aI0
aa(lp390
g2
ag2
ag3
ag16
ag5
(g9
S'\xed\xb2\x99\x8d\xd3,\x8d@'
p391
tp392
Rp393
aI1
aa(lp394
g2
ag2
ag3
ag16
ag5
(g9
S'\xda\xec\x92]\xeb%\x97@'
p395
tp396
Rp397
aI0
aa(lp398
g2
ag2
ag34
ag4
ag5
(g9
S'\xaa^\x8b8\x93\xb9\x90@'
p399
tp400
Rp401
aI1
aa(lp402
g2
ag2
ag34
ag4
ag5
(g9
S'\xbc\x95\x0038\xae\x92@'
p403
tp404
Rp405
aI1
aa(lp406
g2
ag2
ag21
ag16
ag5
(g9
S'\x8a\xbf\xbf\xd2\xd3;\x91@'
p407
tp408
Rp409
aI1
aa(lp410
g2
ag2
ag21
ag16
ag5
(g9
S'l?:\xcb\x18i\x97@'
p411
tp412
Rp413
aI0
aa(lp414
g2
ag2
ag34
ag4
ag5
(g9
S'\x07/\xe0X9\xe4\x93@'
p415
tp416
Rp417
aI1
aa(lp418
g2
ag2
ag21
ag4
ag5
(g9
S'\xbb40\xfd\x8cv\x96@'
p419
tp420
Rp421
aI0
aa(lp422
g2
ag2
ag3
ag4
ag5
(g9
S'\x92\xa4\xd21^1\x8e@'
p423
tp424
Rp425
aI1
aa(lp426
g2
ag2
ag34
ag4
ag5
(g9
S'*F\xe7\xbaz\x80\x96@'
p427
tp428
Rp429
aI0
aa(lp430
g2
ag2
ag3
ag16
ag5
(g9
S'\xf6\x87\x17\x01>:\x8c@'
p431
tp432
Rp433
aI0
aa(lp434
g2
ag2
ag34
ag16
ag5
(g9
S'\x19\x9f\xe2\x03\xb1\x0c\x93@'
p435
tp436
Rp437
aI1
aa(lp438
g2
ag2
ag34
ag16
ag5
(g9
S'\xfe1\xcb\xfb\xf8\xaf\x94@'
p439
tp440
Rp441
aI1
aa(lp442
g2
ag2
ag34
ag16
ag5
(g9
S'\xa5\xe1\xdf\xde\xda\xcd\x92@'
p443
tp444
Rp445
aI0
aa(lp446
g2
ag2
ag34
ag4
ag5
(g9
S'\x1c@\xd7\xc5\xfe\xc7\x96@'
p447
tp448
Rp449
aI0
aa(lp450
g2
ag2
ag34
ag16
ag5
(g9
S'S\x87\xdb\xe7k\x8c\x95@'
p451
tp452
Rp453
aI1
aa(lp454
g2
ag2
ag3
ag16
ag5
(g9
S'\xe1;Zr\xf6\x01\x91@'
p455
tp456
Rp457
aI0
aa(lp458
g2
ag2
ag3
ag4
ag5
(g9
S'\xa6\x17\x84\xdcG|\x91@'
p459
tp460
Rp461
aI0
aa(lp462
g2
ag2
ag34
ag4
ag5
(g9
S'\x1f\x84i\xaf\x04r\x96@'
p463
tp464
Rp465
aI1
aa(lp466
g2
ag2
ag34
ag4
ag5
(g9
S'\xc2F\xda\x0e\xd0)\x8f@'
p467
tp468
Rp469
aI1
aa(lp470
g2
ag2
ag3
ag4
ag5
(g9
S'\xafV\xb7n\xb3\xe9\x8e@'
p471
tp472
Rp473
aI1
aa(lp474
g2
ag2
ag21
ag16
ag5
(g9
S'\x15\xa2\x8f\xce\xbdP\x93@'
p475
tp476
Rp477
aI1
aa(lp478
g2
ag2
ag3
ag4
ag5
(g9
S'Z\x9b\x8bz\xd1\x1a\x94@'
p479
tp480
Rp481
aI1
aa(lp482
g2
ag2
ag21
ag16
ag5
(g9
S'\xf5\xba\xeb\xd9\xcd\x00\x96@'
p483
tp484
Rp485
aI0
aa(lp486
g2
ag2
ag3
ag16
ag5
(g9
S'\xffnpkx\xb5\x8c@'
p487
tp488
Rp489
aI0
aa(lp490
g2
ag2
ag21
ag16
ag5
(g9
S'!\x1b|\x132|\x8e@'
p491
tp492
Rp493
aI0
aa(lp494
g2
ag2
ag3
ag4
ag5
(g9
S'HbZ\x11bZ\x90@'
p495
tp496
Rp497
aI1
aa(lp498
g2
ag2
ag21
ag4
ag5
(g9
S'3\xf8\xe5E\x03?\x91@'
p499
tp500
Rp501
aI1
aa(lp502
g2
ag2
ag3
ag4
ag5
(g9
S'\xecch={\x19\x8e@'
p503
tp504
Rp505
aI1
aa(lp506
g2
ag2
ag34
ag16
ag5
(g9
S"\xe4\xa4\x1b'g#\x8d@"
p507
tp508
Rp509
aI1
aa(lp510
g2
ag2
ag34
ag4
ag5
(g9
S'\xba\xe4\x0b0}|\x91@'
p511
tp512
Rp513
aI0
aa(lp514
g2
ag2
ag21
ag4
ag5
(g9
S'8z@\xeb\xd7\x11\x94@'
p515
tp516
Rp517
aI0
aa(lp518
g2
ag2
ag21
ag16
ag5
(g9
S'Z9?\x8d\xf0\xd3\x92@'
p519
tp520
Rp521
aI1
aa(lp522
g2
ag2
ag3
ag4
ag5
(g9
S'Xs\x8c\xdb" \x91@'
p523
tp524
Rp525
aI0
aa(lp526
g2
ag2
ag21
ag4
ag5
(g9
S'h{v\xc9\x96\n\x93@'
p527
tp528
Rp529
aI0
aa(lp530
g2
ag2
ag34
ag16
ag5
(g9
S'%<\xceP\x13\x88\x93@'
p531
tp532
Rp533
aI1
aa(lp534
g2
ag2
ag21
ag4
ag5
(g9
S'\xac\xc3q\xfb\xa0\xe8\x8f@'
p535
tp536
Rp537
aI0
aa(lp538
g2
ag2
ag21
ag4
ag5
(g9
S'\xc2\xc4b\xf85!\x93@'
p539
tp540
Rp541
aI0
aa(lp542
g2
ag2
ag21
ag16
ag5
(g9
S'\xea\xd3E1$x\x94@'
p543
tp544
Rp545
aI1
aa(lp546
g2
ag2
ag21
ag4
ag5
(g9
S'\x148U\x98x\x9d\x92@'
p547
tp548
Rp549
aI0
aa(lp550
g2
ag2
ag3
ag16
ag5
(g9
S'\xf85\xfa\xcev\x8d\x8d@'
p551
tp552
Rp553
aI0
aa(lp554
g2
ag2
ag3
ag16
ag5
(g9
S'j\x85\xce\xc05A\x97@'
p555
tp556
Rp557
aI1
aa(lp558
g2
ag2
ag34
ag16
ag5
(g9
S'\xfc-\xc1\xdf\x07O\x97@'
p559
tp560
Rp561
aI1
aa(lp562
g2
ag2
ag3
ag4
ag5
(g9
S'h\x8e\xc6{\xc92\x96@'
p563
tp564
Rp565
aI0
aa(lp566
g2
ag2
ag34
ag4
ag5
(g9
S'B\x05\xe7\xf9\xd9\xef\x96@'
p567
tp568
Rp569
aI0
aa(lp570
g2
ag2
ag34
ag16
ag5
(g9
S'\xfa\x92#\xaa\xa71\x97@'
p571
tp572
Rp573
aI1
aa(lp574
g2
ag2
ag21
ag16
ag5
(g9
S'\x9d:k\xaf\xb7"\x8c@'
p575
tp576
Rp577
aI0
aa(lp578
g2
ag2
ag34
ag4
ag5
(g9
S'\x12I\xb1\x19F\xc8\x90@'
p579
tp580
Rp581
aI1
aa(lp582
g2
ag2
ag21
ag4
ag5
(g9
S'74%|\xfc[\x96@'
p583
tp584
Rp585
aI1
aa(lp586
g2
ag2
ag3
ag16
ag5
(g9
S'\x93FX\xb8\xe8\x93\x93@'
p587
tp588
Rp589
aI1
aa(lp590
g2
ag2
ag21
ag16
ag5
(g9
S'\n\t\xe4\xe1q\xfb\x92@'
p591
tp592
Rp593
aI1
aa(lp594
g2
ag2
ag3
ag4
ag5
(g9
S'\x04\x18\n3+\xe6\x93@'
p595
tp596
Rp597
aI0
aa(lp598
g2
ag2
ag3
ag16
ag5
(g9
S'\xb1\xa9\n\x8f\x0fK\x91@'
p599
tp600
Rp601
aI0
aa(lp602
g2
ag2
ag34
ag16
ag5
(g9
S'8\xfe\xd6\r0r\x95@'
p603
tp604
Rp605
aI0
aa(lp606
g2
ag2
ag21
ag16
ag5
(g9
S'\xe2z\x92r\xdap\x8e@'
p607
tp608
Rp609
aI0
aa(lp610
g2
ag2
ag3
ag16
ag5
(g9
S'\xa6\xe4\x85\xacD\xc7\x93@'
p611
tp612
Rp613
aI1
aa(lp614
g2
ag2
ag21
ag4
ag5
(g9
S'\x8f\xebV\xf9\x1c\x03\x92@'
p615
tp616
Rp617
aI1
aa(lp618
g2
ag2
ag21
ag16
ag5
(g9
S'\x83\x8b\xf5\xa5Xv\x8e@'
p619
tp620
Rp621
aI0
aa(lp622
g2
ag2
ag34
ag16
ag5
(g9
S'\x8d\x00\xf7\xc2\x1bY\x8e@'
p623
tp624
Rp625
aI1
aa(lp626
g2
ag2
ag21
ag4
ag5
(g9
S's9\xbf\xc4!%\x96@'
p627
tp628
Rp629
aI0
aa(lp630
g2
ag2
ag21
ag16
ag5
(g9
S'\x1c\xcf;\xfd\xd8x\x94@'
p631
tp632
Rp633
aI1
aa(lp634
g2
ag2
ag34
ag16
ag5
(g9
S'\x90\x14\xf96r=\x91@'
p635
tp636
Rp637
aI1
aa(lp638
g2
ag2
ag3
ag4
ag5
(g9
S'\xee\xc1nSg-\x91@'
p639
tp640
Rp641
aI1
aa(lp642
g2
ag2
ag34
ag4
ag5
(g9
S'\xf3\x8c\xeb\x01\x97\x93\x8c@'
p643
tp644
Rp645
aI1
aa(lp646
g2
ag2
ag21
ag16
ag5
(g9
S'\x80\x15\x96\xcb,\x03\x90@'
p647
tp648
Rp649
aI0
aa(lp650
g2
ag2
ag34
ag16
ag5
(g9
S'Zu/\xd2\xe3\xaa\x90@'
p651
tp652
Rp653
aI1
aa(lp654
g2
ag2
ag34
ag4
ag5
(g9
S'3\xf5\xae\xcc\xb2\xb0\x90@'
p655
tp656
Rp657
aI1
aa(lp658
g2
ag2
ag21
ag4
ag5
(g9
S'\x10\x8f\xdd\xa1\x1f\xc7\x93@'
p659
tp660
Rp661
aI0
aa(lp662
g2
ag2
ag3
ag16
ag5
(g9
S'W\xc6P\xf7\x91\r\x90@'
p663
tp664
Rp665
aI1
aa(lp666
g2
ag2
ag34
ag16
ag5
(g9
S'\xd7\xaf\xd1W\x19\x02\x93@'
p667
tp668
Rp669
aI1
aa(lp670
g2
ag2
ag3
ag16
ag5
(g9
S'+\xd1b\xfd\xf2`\x8e@'
p671
tp672
Rp673
aI1
aa(lp674
g2
ag2
ag3
ag4
ag5
(g9
S'\x88\xe1\xf0/U|\x94@'
p675
tp676
Rp677
aI0
aa(lp678
g2
ag2
ag21
ag4
ag5
(g9
S'\xc1~\xe5\xd7?\x9f\x8e@'
p679
tp680
Rp681
aI0
aa(lp682
g2
ag2
ag3
ag16
ag5
(g9
S'\x12\xefw\xd5\x16k\x91@'
p683
tp684
Rp685
aI1
aa.