(lp0
(lp1
S'long'
p2
aS'long'
p3
aS'letter'
p4
aS'absent'
p5
acnumpy.core.multiarray
scalar
p6
(cnumpy
dtype
p7
(S'f8'
p8
I0
I1
tp9
Rp10
(I3
S'<'
p11
NNNI-1
I-1
I0
tp12
bS'~\x8d\xdb\x13\xbe\x91\x94@'
p13
tp14
Rp15
aI0
aa(lp16
g2
ag3
aS'face'
p17
ag5
ag6
(g10
S'1\xc7\xc9\xb7\xde\xf1\x91@'
p18
tp19
Rp20
aI1
aa(lp21
g2
ag3
ag4
ag5
ag6
(g10
S'\x95\xf2\xac\xfd\xef,\x96@'
p22
tp23
Rp24
aI0
aa(lp25
g2
ag3
aS'house'
p26
aS'present'
p27
ag6
(g10
S'R\x02\x8e\xfe\x07\xa0\x92@'
p28
tp29
Rp30
aI0
aa(lp31
g2
ag3
ag4
ag5
ag6
(g10
S'\xc6\xcb\xe0K(\xf2\x90@'
p32
tp33
Rp34
aI1
aa(lp35
g2
ag3
ag26
ag27
ag6
(g10
S'\\\xa2\xd2\xa4\xb8q\x90@'
p36
tp37
Rp38
aI0
aa(lp39
g2
ag3
ag4
ag27
ag6
(g10
S'\xbe\xfe\x9c\x89\x04l\x8e@'
p40
tp41
Rp42
aI0
aa(lp43
g2
ag3
ag17
ag5
ag6
(g10
S'\xe1\x15\xb4\xe9#\x92\x94@'
p44
tp45
Rp46
aI1
aa(lp47
g2
ag3
ag4
ag5
ag6
(g10
S'\x87\xc4\xb4\x93m\x8d\x90@'
p48
tp49
Rp50
aI1
aa(lp51
g2
ag3
ag4
ag27
ag6
(g10
S'\x8c\xf3\xefr%3\x93@'
p52
tp53
Rp54
aI1
aa(lp55
g2
ag3
ag17
ag27
ag6
(g10
S'g\x1cn\xd1\xee\x0e\x93@'
p56
tp57
Rp58
aI1
aa(lp59
g2
ag3
ag26
ag5
ag6
(g10
S'\x84\x91\xb8\xf3\xdfM\x8f@'
p60
tp61
Rp62
aI0
aa(lp63
g2
ag3
ag26
ag5
ag6
(g10
S'\xb2_.I\x8eg\x97@'
p64
tp65
Rp66
aI1
aa(lp67
g2
ag3
ag17
ag5
ag6
(g10
S'm\xcc\x04=\xfd\xed\x94@'
p68
tp69
Rp70
aI1
aa(lp71
g2
ag3
ag17
ag27
ag6
(g10
S'\x1e\x8bU,\x0eR\x95@'
p72
tp73
Rp74
aI1
aa(lp75
g2
ag3
ag4
ag5
ag6
(g10
S'\xf4\xc2\x84\xbb\xeb\xdd\x93@'
p76
tp77
Rp78
aI0
aa(lp79
g2
ag3
ag4
ag27
ag6
(g10
S'aA\xec\x9e\xb9\n\x97@'
p80
tp81
Rp82
aI1
aa(lp83
g2
ag3
ag4
ag5
ag6
(g10
S'\xb6\xa9\x8c\t\xa3\xf3\x8f@'
p84
tp85
Rp86
aI1
aa(lp87
g2
ag3
ag17
ag27
ag6
(g10
S'\x14C\xaa\x86!\xbf\x94@'
p88
tp89
Rp90
aI0
aa(lp91
g2
ag3
ag17
ag5
ag6
(g10
S'\xf1\xa6\xa4\x91\xd8\xfd\x94@'
p92
tp93
Rp94
aI1
aa(lp95
g2
ag3
ag26
ag27
ag6
(g10
S'\xe6\x95\xcc\xba\xc6h\x96@'
p96
tp97
Rp98
aI0
aa(lp99
g2
ag3
ag26
ag5
ag6
(g10
S'\xfd\xd6\xa9\xc1\xf2\x93\x8f@'
p100
tp101
Rp102
aI0
aa(lp103
g2
ag3
ag17
ag5
ag6
(g10
S'n\xbd\xf6pA\xd3\x91@'
p104
tp105
Rp106
aI1
aa(lp107
g2
ag3
ag26
ag27
ag6
(g10
S'D?\x0f\xd7\x8b\xba\x8f@'
p108
tp109
Rp110
aI0
aa(lp111
g2
ag3
ag4
ag27
ag6
(g10
S'\xfav\xf9\xca\x19s\x92@'
p112
tp113
Rp114
aI0
aa(lp115
g2
ag3
ag17
ag27
ag6
(g10
S'c\xc9R\xa8\x11,\x8c@'
p116
tp117
Rp118
aI0
aa(lp119
g2
ag3
ag26
ag5
ag6
(g10
S'\xde\xa9\xbf\xb1\x98\x1d\x91@'
p120
tp121
Rp122
aI1
aa(lp123
g2
ag3
ag26
ag27
ag6
(g10
S'\xac\xe1\xdbY\xba\x85\x90@'
p124
tp125
Rp126
aI1
aa(lp127
g2
ag3
ag4
ag27
ag6
(g10
S'6\x87189\x96\x8d@'
p128
tp129
Rp130
aI1
aa(lp131
g2
ag3
ag17
ag5
ag6
(g10
S'\x93\x90/7\xe8P\x95@'
p132
tp133
Rp134
aI0
aa(lp135
g2
ag3
ag26
ag27
ag6
(g10
S'\xd9\xd3\x8b\xad_\xa6\x96@'
p136
tp137
Rp138
aI1
aa(lp139
g2
ag3
ag26
ag5
ag6
(g10
S'\x15\xdchO\x05D\x91@'
p140
tp141
Rp142
aI1
aa(lp143
g2
ag3
ag4
ag5
ag6
(g10
S'\xc9v\x0b\xef\x88\xc0\x8e@'
p144
tp145
Rp146
aI0
aa(lp147
g2
ag3
ag26
ag5
ag6
(g10
S"\x9a'\xe5y8I\x91@"
p148
tp149
Rp150
aI1
aa(lp151
g2
ag3
ag26
ag27
ag6
(g10
S'\x02%i\xd4>\xa9\x8d@'
p152
tp153
Rp154
aI0
aa(lp155
g2
ag3
ag26
ag5
ag6
(g10
S'3\x028\x94J\x07\x92@'
p156
tp157
Rp158
aI0
aa(lp159
g2
ag3
ag17
ag5
ag6
(g10
S'\xe1\xad\xee9=\xaa\x94@'
p160
tp161
Rp162
aI1
aa(lp163
g2
ag3
ag26
ag27
ag6
(g10
S'\xcc\nv\x8dQ\xc1\x8e@'
p164
tp165
Rp166
aI0
aa(lp167
g2
ag3
ag17
ag5
ag6
(g10
S'\xc2\xb8\xdb\x7f\xad!\x97@'
p168
tp169
Rp170
aI0
aa(lp171
g2
ag3
ag4
ag5
ag6
(g10
S'\nM\xb5!\xacV\x97@'
p172
tp173
Rp174
aI1
aa(lp175
g2
ag3
ag26
ag5
ag6
(g10
S'\x8fu\x88\xc0u\xe1\x93@'
p176
tp177
Rp178
aI0
aa(lp179
g2
ag3
ag26
ag5
ag6
(g10
S'\x86\xbf7p\x1cX\x92@'
p180
tp181
Rp182
aI1
aa(lp183
g2
ag3
ag26
ag27
ag6
(g10
S'\xe9\x1eF\x8b\x89$\x97@'
p184
tp185
Rp186
aI0
aa(lp187
g2
ag3
ag17
ag5
ag6
(g10
S'\xf8\xb9\xc3\x8b\xa3I\x96@'
p188
tp189
Rp190
aI1
aa(lp191
g2
ag3
ag26
ag5
ag6
(g10
S'V9$\x8e1\xaf\x96@'
p192
tp193
Rp194
aI0
aa(lp195
g2
ag3
ag17
ag5
ag6
(g10
S'2\xdey\x0b\xc1\xf0\x8c@'
p196
tp197
Rp198
aI0
aa(lp199
g2
ag3
ag26
ag27
ag6
(g10
S'\xe3\xf8\xa9\xa2{\x8f\x94@'
p200
tp201
Rp202
aI1
aa(lp203
g2
ag3
ag4
ag5
ag6
(g10
S'\xaa\x9d\xa9\xe5,\xee\x91@'
p204
tp205
Rp206
aI1
aa(lp207
g2
ag3
ag4
ag5
ag6
(g10
S'\x0b\xe9O\xd4\xdb\x1a\x90@'
p208
tp209
Rp210
aI0
aa(lp211
g2
ag3
ag4
ag27
ag6
(g10
S'\xd8qa\xde3;\x8f@'
p212
tp213
Rp214
aI0
aa(lp215
g2
ag3
ag4
ag5
ag6
(g10
S'\x99\x18I\x00\xc2\xcd\x92@'
p216
tp217
Rp218
aI1
aa(lp219
g2
ag3
ag17
ag5
ag6
(g10
S'\x0f\xf7\xa3\xe6\x04\xfa\x90@'
p220
tp221
Rp222
aI1
aa(lp223
g2
ag3
ag4
ag27
ag6
(g10
S'5\xaeW\\\xc3\xf0\x90@'
p224
tp225
Rp226
aI1
aa(lp227
g2
ag3
ag4
ag5
ag6
(g10
S'L\xd4\xc4\xa9\x81\x87\x92@'
p228
tp229
Rp230
aI1
aa(lp231
g2
ag3
ag26
ag27
ag6
(g10
S'\xa8\x1f\rP\xbb\xb5\x8f@'
p232
tp233
Rp234
aI0
aa(lp235
g2
ag3
ag4
ag5
ag6
(g10
S'\xa5v\xe1\x89\x9c\xd7\x8f@'
p236
tp237
Rp238
aI1
aa(lp239
g2
ag3
ag4
ag27
ag6
(g10
S'v\xcf5P4\xa4\x92@'
p240
tp241
Rp242
aI1
aa(lp243
g2
ag3
ag26
ag5
ag6
(g10
S'\xf0\x9d\xfd\x86\xd6R\x97@'
p244
tp245
Rp246
aI1
aa(lp247
g2
ag3
ag17
ag27
ag6
(g10
S';\x1a\x7f\xe3\xc5\xc5\x8f@'
p248
tp249
Rp250
aI1
aa(lp251
g2
ag3
ag26
ag27
ag6
(g10
S'x\xe0\xad\x91\x9e\x83\x91@'
p252
tp253
Rp254
aI1
aa(lp255
g2
ag3
ag17
ag27
ag6
(g10
S'\xae\x1b\x94\xc7\xf3\x9a\x94@'
p256
tp257
Rp258
aI0
aa(lp259
g2
ag3
ag17
ag27
ag6
(g10
S',0\xf3\x9dBO\x97@'
p260
tp261
Rp262
aI1
aa(lp263
g2
ag3
ag17
ag5
ag6
(g10
S'\xad\xda\xea)\xa5\xad\x90@'
p264
tp265
Rp266
aI1
aa(lp267
g2
ag3
ag17
ag5
ag6
(g10
S'\xd2U\xbc9\x18\x0f\x94@'
p268
tp269
Rp270
aI0
aa(lp271
g2
ag3
ag17
ag27
ag6
(g10
S'\x00}\xdd\xd6a\x95\x95@'
p272
tp273
Rp274
aI1
aa(lp275
g2
ag3
ag26
ag5
ag6
(g10
S'U\xcf\x00\x97\x1d\xa2\x93@'
p276
tp277
Rp278
aI0
aa(lp279
g2
ag3
ag26
ag5
ag6
(g10
S'}\x14\xc5\xff\xa3\xe5\x94@'
p280
tp281
Rp282
aI1
aa(lp283
g2
ag3
ag4
ag27
ag6
(g10
S'\x0f\xcfG#V\xc5\x93@'
p284
tp285
Rp286
aI1
aa(lp287
g2
ag3
ag26
ag27
ag6
(g10
S'\x12\xa80\\)C\x95@'
p288
tp289
Rp290
aI0
aa(lp291
g2
ag3
ag17
ag5
ag6
(g10
S'\xe9k\xf8\xb2d\x96\x96@'
p292
tp293
Rp294
aI0
aa(lp295
g2
ag3
ag17
ag5
ag6
(g10
S'\xbee\xbe\xb7\xf3\xa2\x8d@'
p296
tp297
Rp298
aI0
aa(lp299
g2
ag3
ag26
ag5
ag6
(g10
S'\xf6\xbaH\xb1\x9e\xd2\x95@'
p300
tp301
Rp302
aI0
aa(lp303
g2
ag3
ag4
ag27
ag6
(g10
S'\xd6w\xafO$ \x97@'
p304
tp305
Rp306
aI0
aa(lp307
g2
ag3
ag17
ag27
ag6
(g10
S'\xcc\x9e\xf3\xa9v\xe3\x91@'
p308
tp309
Rp310
aI1
aa(lp311
g2
ag3
ag4
ag5
ag6
(g10
S'\xc1\xc8\x1d2f0\x94@'
p312
tp313
Rp314
aI1
aa(lp315
g2
ag3
ag17
ag5
ag6
(g10
S'L\xc9\x9a\xd1\xcd\x9f\x96@'
p316
tp317
Rp318
aI0
aa(lp319
g2
ag3
ag4
ag27
ag6
(g10
S'\xb2\x8b2\xa4\xd7\xb4\x90@'
p320
tp321
Rp322
aI1
aa(lp323
g2
ag3
ag4
ag27
ag6
(g10
S'\xe4F\xf2\xfe\xec6\x92@'
p324
tp325
Rp326
aI0
aa(lp327
g2
ag3
ag4
ag27
ag6
(g10
S'_\xc9\xf1hk\xc5\x8c@'
p328
tp329
Rp330
aI1
aa(lp331
g2
ag3
ag26
ag5
ag6
(g10
S'\x17\xa4\xe8\xf3f\x9a\x92@'
p332
tp333
Rp334
aI0
aa(lp335
g2
ag3
ag17
ag27
ag6
(g10
S'\xcc\xec\xe2\xe7\xc3>\x8f@'
p336
tp337
Rp338
aI0
aa(lp339
g2
ag3
ag26
ag5
ag6
(g10
S'&`\xeayEB\x92@'
p340
tp341
Rp342
aI0
aa(lp343
g2
ag3
ag26
ag27
ag6
(g10
S'\xee{\x1a\rr\x9d\x94@'
p344
tp345
Rp346
aI1
aa(lp347
g2
ag3
ag26
ag27
ag6
(g10
S'L\xf1\xac\x88=\\\x8e@'
p348
tp349
Rp350
aI1
aa(lp351
g2
ag3
ag17
ag5
ag6
(g10
S'9%\x81\x04\xc9\xd2\x95@'
p352
tp353
Rp354
aI1
aa(lp355
g2
ag3
ag4
ag27
ag6
(g10
S'\xfe\xd0D\xa8\x8d\xf7\x96@'
p356
tp357
Rp358
aI1
aa(lp359
g2
ag3
ag4
ag5
ag6
(g10
S"\xd6'\xae3\x07\xe9\x94@"
p360
tp361
Rp362
aI1
aa(lp363
g2
ag3
ag17
ag27
ag6
(g10
S'\xaa\x00\x08\xb2U\x84\x90@'
p364
tp365
Rp366
aI1
aa(lp367
g2
ag3
ag17
ag27
ag6
(g10
S'z\xc0\x85\xf3\xac\xd5\x93@'
p368
tp369
Rp370
aI0
aa(lp371
g2
ag3
ag17
ag5
ag6
(g10
S'\x19\xa2JQ\xa6\xac\x91@'
p372
tp373
Rp374
aI0
aa(lp375
g2
ag3
ag4
ag5
ag6
(g10
S'K\xc6#\xd0\xf6\x01\x93@'
p376
tp377
Rp378
aI0
aa(lp379
g2
ag3
ag4
ag27
ag6
(g10
S'\x9a\xbe<\x06q\xe2\x96@'
p380
tp381
Rp382
aI1
aa(lp383
g2
ag3
ag4
ag5
ag6
(g10
S'p$\xff&\xaf\x97\x90@'
p384
tp385
Rp386
aI1
aa(lp387
g2
ag3
ag26
ag27
ag6
(g10
S'\xe0\xea\x90\x82\xbfk\x94@'
p388
tp389
Rp390
aI1
aa(lp391
g2
ag3
ag4
ag5
ag6
(g10
S'\x9c-\xab\x92\x0b\xc4\x93@'
p392
tp393
Rp394
aI0
aa(lp395
g2
ag3
ag26
ag27
ag6
(g10
S'\xcc\xa1P}\xcb\xb1\x95@'
p396
tp397
Rp398
aI1
aa(lp399
g2
ag3
ag17
ag5
ag6
(g10
S'\x0c\xc1\x81\xd3/{\x95@'
p400
tp401
Rp402
aI0
aa(lp403
g2
ag3
ag17
ag27
ag6
(g10
S'\x92\xc5<a\xf83\x8f@'
p404
tp405
Rp406
aI0
aa(lp407
g2
ag3
ag17
ag27
ag6
(g10
S't\xf0q9\x99\\\x93@'
p408
tp409
Rp410
aI1
aa(lp411
g2
ag3
ag17
ag27
ag6
(g10
S'\xf27\x95\xfd\x07\t\x95@'
p412
tp413
Rp414
aI0
aa(lp415
g2
ag3
ag26
ag5
ag6
(g10
S'\x8e\x1d\xe9\xc9<\x9b\x8f@'
p416
tp417
Rp418
aI0
aa(lp419
g2
ag3
ag17
ag5
ag6
(g10
S'c\xa1\x1f\x8b\x1d\x08\x91@'
p420
tp421
Rp422
aI0
aa(lp423
g2
ag3
ag17
ag5
ag6
(g10
S'\x80M\xe1p\x03\x9c\x95@'
p424
tp425
Rp426
aI1
aa(lp427
g2
ag3
ag17
ag27
ag6
(g10
S'u\x83!R(Y\x8e@'
p428
tp429
Rp430
aI1
aa(lp431
g2
ag3
ag26
ag5
ag6
(g10
S'\x96\xbd\x80&i\x1e\x97@'
p432
tp433
Rp434
aI1
aa(lp435
g2
ag3
ag4
ag27
ag6
(g10
S'\xfa`\xac\xaa\xc6\x0b\x8e@'
p436
tp437
Rp438
aI0
aa(lp439
g2
ag3
ag26
ag27
ag6
(g10
S'\xf1\xb2\xef\xca\x15-\x8d@'
p440
tp441
Rp442
aI0
aa(lp443
g2
ag3
ag4
ag5
ag6
(g10
S'\xe8\x06\xb6\xa0\x868\x96@'
p444
tp445
Rp446
aI0
aa(lp447
g2
ag3
ag4
ag27
ag6
(g10
S'lb\xea\xfb\x93\x95\x94@'
p448
tp449
Rp450
aI1
aa(lp451
g2
ag3
ag17
ag5
ag6
(g10
S'R\x85\xee\x97\xa4I\x92@'
p452
tp453
Rp454
aI1
aa(lp455
g2
ag3
ag4
ag5
ag6
(g10
S'4A\xd4L\xb6\xef\x96@'
p456
tp457
Rp458
aI0
aa(lp459
g2
ag3
ag26
ag27
ag6
(g10
S'\x99\x80\x95\xff\xe5\xdd\x8d@'
p460
tp461
Rp462
aI0
aa(lp463
g2
ag3
ag4
ag27
ag6
(g10
S'\xef\xdf&\xb2\xfe\xf2\x95@'
p464
tp465
Rp466
aI1
aa(lp467
g2
ag3
ag26
ag27
ag6
(g10
S'\x8f\x14\x0b{A3\x90@'
p468
tp469
Rp470
aI1
aa(lp471
g2
ag3
ag26
ag5
ag6
(g10
S'\xf5\xc1\xe2\x86\xcd`\x95@'
p472
tp473
Rp474
aI1
aa(lp475
g2
ag3
ag26
ag27
ag6
(g10
S'\xbc\\6#\x8d\xd0\x8c@'
p476
tp477
Rp478
aI0
aa(lp479
g2
ag3
ag4
ag27
ag6
(g10
S'\xe8\xba\r\xbaw\x9b\x91@'
p480
tp481
Rp482
aI1
aa(lp483
g2
ag3
ag26
ag27
ag6
(g10
S'\xf5\xf7\xda\xecC\x98\x95@'
p484
tp485
Rp486
aI1
aa(lp487
g2
ag3
ag26
ag5
ag6
(g10
S'v\x93\xd0\x9bvS\x92@'
p488
tp489
Rp490
aI1
aa(lp491
g2
ag3
ag17
ag27
ag6
(g10
S'\x12#\x99\xf3\x888\x90@'
p492
tp493
Rp494
aI1
aa(lp495
g2
ag3
ag26
ag27
ag6
(g10
S'P\x8e\x0c\xbe\xa8F\x8d@'
p496
tp497
Rp498
aI1
aa(lp499
g2
ag3
ag4
ag5
ag6
(g10
S'\xcf\x82~\xb0\xbdD\x94@'
p500
tp501
Rp502
aI0
aa(lp503
g2
ag3
ag4
ag27
ag6
(g10
S'@\x8a9\x1eWD\x97@'
p504
tp505
Rp506
aI1
aa(lp507
g2
ag3
ag4
ag5
ag6
(g10
S'\xda\xeb\xc9\xcaqW\x90@'
p508
tp509
Rp510
aI1
aa(lp511
g2
ag3
ag17
ag5
ag6
(g10
S"\xb0\x9b'\x80\xdb\xec\x91@"
p512
tp513
Rp514
aI1
aa(lp515
g2
ag3
ag17
ag27
ag6
(g10
S'\x1f\xb7,\x0c\xde\x1d\x90@'
p516
tp517
Rp518
aI0
aa(lp519
g2
ag3
ag17
ag5
ag6
(g10
S't\xe5\n\x10\xacq\x93@'
p520
tp521
Rp522
aI0
aa(lp523
g2
ag3
ag26
ag27
ag6
(g10
S'\xfe\xefV\x11O\xd6\x94@'
p524
tp525
Rp526
aI1
aa(lp527
g2
ag3
ag26
ag27
ag6
(g10
S'\x85\xa0\xcbT\xf4)\x95@'
p528
tp529
Rp530
aI1
aa(lp531
g2
ag3
ag26
ag5
ag6
(g10
S'\xaf\\\xa0OVz\x90@'
p532
tp533
Rp534
aI0
aa(lp535
g2
ag3
ag4
ag5
ag6
(g10
S'P\xa3\xa4\xea\xb3\x1f\x8e@'
p536
tp537
Rp538
aI1
aa(lp539
g2
ag3
ag17
ag5
ag6
(g10
S'\xfdw>\x18\x1b^\x96@'
p540
tp541
Rp542
aI0
aa(lp543
g2
ag3
ag17
ag27
ag6
(g10
S'\xa0L@\xfbPz\x92@'
p544
tp545
Rp546
aI0
aa(lp547
g2
ag3
ag4
ag27
ag6
(g10
S'=\x95\xc1\xd0dK\x8d@'
p548
tp549
Rp550
aI1
aa(lp551
g2
ag3
ag26
ag5
ag6
(g10
S'\xa5\x97\xc89\xf2L\x93@'
p552
tp553
Rp554
aI0
aa(lp555
g2
ag3
ag4
ag5
ag6
(g10
S'=\xe7X\x04u\x80\x93@'
p556
tp557
Rp558
aI0
aa(lp559
g2
ag3
ag26
ag5
ag6
(g10
S'"\xc6\x08\xb2\xf5e\x90@'
p560
tp561
Rp562
aI0
aa(lp563
g2
ag3
ag17
ag27
ag6
(g10
S'\xe4\xcbO\xec\xa2\x9e\x96@'
p564
tp565
Rp566
aI1
aa(lp567
g2
ag3
ag26
ag27
ag6
(g10
S'.\xb7\xdf\x82\x8d1\x92@'
p568
tp569
Rp570
aI1
aa(lp571
g2
ag3
ag4
ag27
ag6
(g10
S'\x84F\r\xa9C/\x96@'
p572
tp573
Rp574
aI0
aa(lp575
g2
ag3
ag26
ag5
ag6
(g10
S'\x8eE\xc0\x11\xbcO\x97@'
p576
tp577
Rp578
aI0
aa(lp579
g2
ag3
ag17
ag27
ag6
(g10
S'rcg\xe0\x83\x02\x91@'
p580
tp581
Rp582
aI1
aa(lp583
g2
ag3
ag26
ag5
ag6
(g10
S'\x17|\xc4|\xe9\x89\x95@'
p584
tp585
Rp586
aI0
aa(lp587
g2
ag3
ag4
ag5
ag6
(g10
S'\xecyi\xd5\x1d\x00\x8f@'
p588
tp589
Rp590
aI0
aa(lp591
g2
ag3
ag17
ag5
ag6
(g10
S'\xad\xc0\xb0\xb7\x18\xbc\x8c@'
p592
tp593
Rp594
aI0
aa(lp595
g2
ag3
ag4
ag27
ag6
(g10
S']\x85$\xf4\xabU\x91@'
p596
tp597
Rp598
aI0
aa(lp599
g2
ag3
ag4
ag27
ag6
(g10
S'l\xdf\x0b:?g\x97@'
p600
tp601
Rp602
aI1
aa(lp603
g2
ag3
ag26
ag27
ag6
(g10
S'\xfb\x9d\xf6\xa1\xe1P\x8f@'
p604
tp605
Rp606
aI0
aa(lp607
g2
ag3
ag26
ag5
ag6
(g10
S'\xba\x9f{\x164,\x94@'
p608
tp609
Rp610
aI0
aa(lp611
g2
ag3
ag17
ag27
ag6
(g10
S'c\xf3\xb9\xe3,\xe0\x95@'
p612
tp613
Rp614
aI1
aa(lp615
g2
ag3
ag17
ag27
ag6
(g10
S'5T\xb0X;\xc9\x96@'
p616
tp617
Rp618
aI1
aa(lp619
g2
ag3
ag4
ag5
ag6
(g10
S'\xf1\x1ae_\xb3\xe1\x8e@'
p620
tp621
Rp622
aI0
aa(lp623
g2
ag3
ag26
ag27
ag6
(g10
S'\x92.\xd1\x7f\xa5\xc6\x8f@'
p624
tp625
Rp626
aI1
aa(lp627
g2
ag3
ag4
ag5
ag6
(g10
S'&"\xb8\x12(\x9b\x92@'
p628
tp629
Rp630
aI0
aa(lp631
g2
ag3
ag4
ag27
ag6
(g10
S'\xfa-\xe7\x02\xf9\xdc\x95@'
p632
tp633
Rp634
aI1
aa(lp635
g2
ag3
ag4
ag5
ag6
(g10
S'\xba\xea\xe3\xf0\xd1J\x8e@'
p636
tp637
Rp638
aI1
aa(lp639
g2
ag3
ag17
ag5
ag6
(g10
S'\xb0KS\xcd\x8e\x12\x97@'
p640
tp641
Rp642
aI0
aa(lp643
g2
ag3
ag17
ag27
ag6
(g10
S'\xb5\x01wM\xd4V\x91@'
p644
tp645
Rp646
aI0
aa(lp647
g2
ag3
ag17
ag27
ag6
(g10
S'=$H\xadp#\x96@'
p648
tp649
Rp650
aI0
aa(lp651
g2
ag3
ag4
ag27
ag6
(g10
S'Uy>5W\x07\x8d@'
p652
tp653
Rp654
aI1
aa(lp655
g2
ag3
ag26
ag5
ag6
(g10
S"\xfc'\xce\xa6,\\\x8e@"
p656
tp657
Rp658
aI0
aa(lp659
g2
ag3
ag17
ag5
ag6
(g10
S'\x8eb/\xb4\\\x9a\x94@'
p660
tp661
Rp662
aI1
aa(lp663
g2
ag3
ag17
ag27
ag6
(g10
S'|\x02\x8c\xbb\xce\xec\x91@'
p664
tp665
Rp666
aI1
aa(lp667
g2
ag3
ag17
ag5
ag6
(g10
S'\xf1<\xe4Q\xf6\x9d\x94@'
p668
tp669
Rp670
aI1
aa(lp671
g2
ag3
ag4
ag27
ag6
(g10
S'\x06\x9f$\xe2\xaah\x8e@'
p672
tp673
Rp674
aI1
aa(lp675
g2
ag3
ag4
ag27
ag6
(g10
S'{\xa3\n\x85\x80\xfe\x8c@'
p676
tp677
Rp678
aI1
aa(lp679
g2
ag3
ag26
ag5
ag6
(g10
S'\x1e7\xfb\tia\x94@'
p680
tp681
Rp682
aI0
aa(lp683
g2
ag3
ag17
ag27
ag6
(g10
S'\xe6\x7f\x82\xe2\xaf\t\x97@'
p684
tp685
Rp686
aI0
aa.