(lp0
(lp1
S'mixed'
p2
aS'long'
p3
aS'face'
p4
aS'present'
p5
acnumpy.core.multiarray
scalar
p6
(cnumpy
dtype
p7
(S'f8'
p8
I0
I1
tp9
Rp10
(I3
S'<'
p11
NNNI-1
I-1
I0
tp12
bS'\xfa\x96?)\xd8\xc5\x8e@'
p13
tp14
Rp15
aI1
aa(lp16
g2
ag3
ag4
aS'absent'
p17
ag6
(g10
S')\xc9\xe8\x88\x86\xd6\x8f@'
p18
tp19
Rp20
aI0
aa(lp21
g2
ag3
aS'house'
p22
ag17
ag6
(g10
S'\xd5\x1f\x10\xe9\xc5\xb0\x91@'
p23
tp24
Rp25
aI1
aa(lp26
g2
ag3
ag22
ag17
ag6
(g10
S'\x03L\xbdh?7\x90@'
p27
tp28
Rp29
aI1
aa(lp30
g2
aS'short'
p31
ag4
ag5
ag6
(g10
S'd\x83\x98\x14\xf1\x84\x96@'
p32
tp33
Rp34
aI0
aa(lp35
g2
ag3
ag22
ag5
ag6
(g10
S'j\x98 \xdd\xdf\xda\x95@'
p36
tp37
Rp38
aI1
aa(lp39
g2
ag31
aS'letter'
p40
ag5
ag6
(g10
S'\x94\xe5\xa7\xafZ\r\x95@'
p41
tp42
Rp43
aI0
aa(lp44
g2
ag31
ag40
ag5
ag6
(g10
S'6\xf6d\x97\xfbu\x95@'
p45
tp46
Rp47
aI0
aa(lp48
g2
ag31
ag40
ag17
ag6
(g10
S'C\x9evx\xffg\x95@'
p49
tp50
Rp51
aI0
aa(lp52
g2
ag3
ag40
ag5
ag6
(g10
S'\x980?\xa6\xfa\x03\x93@'
p53
tp54
Rp55
aI1
aa(lp56
g2
ag3
ag22
ag5
ag6
(g10
S':\x95\x0e\xa5\xf37\x96@'
p57
tp58
Rp59
aI0
aa(lp60
g2
ag3
ag40
ag17
ag6
(g10
S'\x95\xab\xde\x16\xdf\xa8\x95@'
p61
tp62
Rp63
aI0
aa(lp64
g2
ag31
ag4
ag5
ag6
(g10
S'\x1a0\x8dM\x8dp\x94@'
p65
tp66
Rp67
aI0
aa(lp68
g2
ag3
ag40
ag17
ag6
(g10
S'\xe1\xee\xfa\x18\xb7\xc9\x92@'
p69
tp70
Rp71
aI0
aa(lp72
g2
ag3
ag22
ag5
ag6
(g10
S'\xf3Ok?\x9ec\x97@'
p73
tp74
Rp75
aI1
aa(lp76
g2
ag31
ag22
ag5
ag6
(g10
S'\xb7\x06Bj\xc7\x84\x91@'
p77
tp78
Rp79
aI1
aa(lp80
g2
ag31
ag40
ag17
ag6
(g10
S'\xc2\xad\xb7\xff\x16\xf6\x8f@'
p81
tp82
Rp83
aI1
aa(lp84
g2
ag31
ag4
ag5
ag6
(g10
S'\xda\x06f\xe2\x97b\x91@'
p85
tp86
Rp87
aI1
aa(lp88
g2
ag31
ag40
ag5
ag6
(g10
S'\xa8\x04\xaeB3\xf7\x96@'
p89
tp90
Rp91
aI0
aa(lp92
g2
ag3
ag4
ag17
ag6
(g10
S'\xd5\xfa\xc0\x90Ih\x8f@'
p93
tp94
Rp95
aI0
aa(lp96
g2
ag31
ag4
ag17
ag6
(g10
S'Dr\x0e\x8c\xfd)\x97@'
p97
tp98
Rp99
aI1
aa(lp100
g2
ag31
ag40
ag17
ag6
(g10
S'\xac6<\xcd\x84"\x8f@'
p101
tp102
Rp103
aI1
aa(lp104
g2
ag3
ag4
ag5
ag6
(g10
S'\xd6Q2`f\xbe\x94@'
p105
tp106
Rp107
aI1
aa(lp108
g2
ag3
ag22
ag17
ag6
(g10
S'\xff#3\\\xdc$\x95@'
p109
tp110
Rp111
aI0
aa(lp112
g2
ag31
ag22
ag17
ag6
(g10
S'}l\x9e\xbaa~\x8d@'
p113
tp114
Rp115
aI0
aa(lp116
g2
ag3
ag40
ag17
ag6
(g10
S'p\x0e\x17,q1\x92@'
p117
tp118
Rp119
aI1
aa(lp120
g2
ag31
ag22
ag5
ag6
(g10
S'\xae\x86\x1by9\x8d\x91@'
p121
tp122
Rp123
aI1
aa(lp124
g2
ag31
ag40
ag5
ag6
(g10
S'\xaeK\xaa1\xf3\x1c\x8f@'
p125
tp126
Rp127
aI0
aa(lp128
g2
ag31
ag4
ag5
ag6
(g10
S'\xea\xdc\xb3\x9f\xac\x88\x94@'
p129
tp130
Rp131
aI0
aa(lp132
g2
ag31
ag40
ag17
ag6
(g10
S"Oq\x9d'x\xd5\x8d@"
p133
tp134
Rp135
aI1
aa(lp136
g2
ag31
ag40
ag17
ag6
(g10
S'\xc8cF\xf3\x05\x9c\x94@'
p137
tp138
Rp139
aI1
aa(lp140
g2
ag3
ag22
ag5
ag6
(g10
S'\x87\x8e_\xf9N \x97@'
p141
tp142
Rp143
aI0
aa(lp144
g2
ag3
ag22
ag17
ag6
(g10
S'E"|Rl\xaa\x90@'
p145
tp146
Rp147
aI1
aa(lp148
g2
ag31
ag22
ag17
ag6
(g10
S'\xa6\xd0\xd9\xae\x9fW\x90@'
p149
tp150
Rp151
aI1
aa(lp152
g2
ag3
ag40
ag5
ag6
(g10
S'\x9d\xa6/\xfd`\x05\x91@'
p153
tp154
Rp155
aI0
aa(lp156
g2
ag31
ag22
ag5
ag6
(g10
S'\xb4^\x06\x91\xbc\xb5\x95@'
p157
tp158
Rp159
aI1
aa(lp160
g2
ag31
ag4
ag17
ag6
(g10
S'\xb0\t\x16\xc0\x8f$\x97@'
p161
tp162
Rp163
aI0
aa(lp164
g2
ag3
ag22
ag5
ag6
(g10
S'\x92\xb5\x7fL\xd9e\x97@'
p165
tp166
Rp167
aI1
aa(lp168
g2
ag3
ag40
ag17
ag6
(g10
S'J!\xe9\xe2\xa5\xf5\x8e@'
p169
tp170
Rp171
aI0
aa(lp172
g2
ag31
ag22
ag5
ag6
(g10
S'\xa4\x86b\xd6\xeb\x00\x96@'
p173
tp174
Rp175
aI0
aa(lp176
g2
ag3
ag40
ag5
ag6
(g10
S'\x90\xd2\x04 \x19f\x95@'
p177
tp178
Rp179
aI0
aa(lp180
g2
ag3
ag22
ag17
ag6
(g10
S'>|\xa5\xa8h\xc6\x94@'
p181
tp182
Rp183
aI1
aa(lp184
g2
ag31
ag22
ag5
ag6
(g10
S'\xafYnN\xb0\xf2\x93@'
p185
tp186
Rp187
aI1
aa(lp188
g2
ag31
ag4
ag5
ag6
(g10
S'\x19NV\x9d\xef\xcc\x94@'
p189
tp190
Rp191
aI1
aa(lp192
g2
ag31
ag4
ag17
ag6
(g10
S'F\xaewu`\xab\x90@'
p193
tp194
Rp195
aI1
aa(lp196
g2
ag31
ag22
ag17
ag6
(g10
S'`\xfc\x92.\x7fU\x90@'
p197
tp198
Rp199
aI1
aa(lp200
g2
ag3
ag4
ag5
ag6
(g10
S'\xe6\x94Y\x8d\x0b5\x90@'
p201
tp202
Rp203
aI1
aa(lp204
g2
ag3
ag40
ag17
ag6
(g10
S'\xbbL\xb4\x88m\xc3\x93@'
p205
tp206
Rp207
aI1
aa(lp208
g2
ag31
ag40
ag17
ag6
(g10
S'J\xcfz\x99\xd3\xe0\x8f@'
p209
tp210
Rp211
aI1
aa(lp212
g2
ag31
ag40
ag5
ag6
(g10
S'h\xb2Pb[1\x90@'
p213
tp214
Rp215
aI1
aa(lp216
g2
ag3
ag40
ag5
ag6
(g10
S'K\x92\x05\xd8\t\x8d\x96@'
p217
tp218
Rp219
aI1
aa(lp220
g2
ag3
ag22
ag17
ag6
(g10
S'/\xc3\x9e\x0f\x17g\x8c@'
p221
tp222
Rp223
aI1
aa(lp224
g2
ag31
ag4
ag17
ag6
(g10
S'\x9c\xe9\xd2>\x8a\xbd\x96@'
p225
tp226
Rp227
aI1
aa(lp228
g2
ag31
ag4
ag5
ag6
(g10
S'\x80\xa1\xc0UX\x91\x8e@'
p229
tp230
Rp231
aI1
aa(lp232
g2
ag3
ag40
ag17
ag6
(g10
S'\xdb1\xe6\x11\x03p\x95@'
p233
tp234
Rp235
aI0
aa(lp236
g2
ag3
ag22
ag17
ag6
(g10
S'\xc0Fa\xb4\xa7\xf9\x91@'
p237
tp238
Rp239
aI1
aa(lp240
g2
ag31
ag22
ag5
ag6
(g10
S'\xf3\x17\xca.\xde\xf7\x95@'
p241
tp242
Rp243
aI0
aa(lp244
g2
ag31
ag4
ag5
ag6
(g10
S'v\xda\x16y\xe3\x17\x94@'
p245
tp246
Rp247
aI1
aa(lp248
g2
ag31
ag40
ag5
ag6
(g10
S's\xf9\xa7iu\x8e\x92@'
p249
tp250
Rp251
aI0
aa(lp252
g2
ag3
ag4
ag17
ag6
(g10
S'4-\x93\xb1]\xe1\x94@'
p253
tp254
Rp255
aI1
aa(lp256
g2
ag3
ag40
ag5
ag6
(g10
S'\x1b\xb8\x14\x03\xaa\x92\x94@'
p257
tp258
Rp259
aI0
aa(lp260
g2
ag3
ag22
ag17
ag6
(g10
S'"\xda3\xb0\xb2\xb0\x94@'
p261
tp262
Rp263
aI0
aa(lp264
g2
ag31
ag4
ag17
ag6
(g10
S'\xb6n\xc1\xf9\xcb_\x97@'
p265
tp266
Rp267
aI1
aa(lp268
g2
ag3
ag40
ag5
ag6
(g10
S'\xb0v\x8e\xd0o\xaa\x91@'
p269
tp270
Rp271
aI1
aa(lp272
g2
ag3
ag22
ag5
ag6
(g10
S'\x90{#\xd8\x88\xd3\x8d@'
p273
tp274
Rp275
aI0
aa(lp276
g2
ag31
ag40
ag17
ag6
(g10
S'\x15\x9d\x89\xa7\xaf\x9c\x96@'
p277
tp278
Rp279
aI1
aa(lp280
g2
ag31
ag4
ag17
ag6
(g10
S'*\xdf\x1b\x7f\xa1\xd1\x91@'
p281
tp282
Rp283
aI0
aa(lp284
g2
ag31
ag22
ag17
ag6
(g10
S'|\xfdF\xc7\x08\xa4\x96@'
p285
tp286
Rp287
aI1
aa(lp288
g2
ag3
ag40
ag17
ag6
(g10
S'#w:\nW$\x8d@'
p289
tp290
Rp291
aI0
aa(lp292
g2
ag31
ag22
ag5
ag6
(g10
S'\x92y\x07\x82F\xcb\x92@'
p293
tp294
Rp295
aI0
aa(lp296
g2
ag3
ag4
ag17
ag6
(g10
S'\xfd\xc8\x02\xff\xbc=\x96@'
p297
tp298
Rp299
aI0
aa(lp300
g2
ag31
ag40
ag17
ag6
(g10
S'\xf6\x01\x1d\xfbQU\x94@'
p301
tp302
Rp303
aI0
aa(lp304
g2
ag31
ag40
ag5
ag6
(g10
S'{\xacj\xab\r[\x8f@'
p305
tp306
Rp307
aI1
aa(lp308
g2
ag3
ag40
ag17
ag6
(g10
S'\x0c\xb4;\x8f\xfa\x84\x92@'
p309
tp310
Rp311
aI1
aa(lp312
g2
ag3
ag22
ag5
ag6
(g10
S'1\xbdt\xe4>n\x8d@'
p313
tp314
Rp315
aI1
aa(lp316
g2
ag3
ag40
ag17
ag6
(g10
S'|6-v\xc8\x1d\x97@'
p317
tp318
Rp319
aI1
aa(lp320
g2
ag31
ag22
ag17
ag6
(g10
S'\xdf\xa1\xfa}j\xa2\x93@'
p321
tp322
Rp323
aI0
aa(lp324
g2
ag31
ag40
ag5
ag6
(g10
S'\xba\xe4\xb0\xa3r\xf1\x93@'
p325
tp326
Rp327
aI0
aa(lp328
g2
ag31
ag4
ag17
ag6
(g10
S'H*XS\xc3A\x95@'
p329
tp330
Rp331
aI0
aa(lp332
g2
ag3
ag22
ag17
ag6
(g10
S'\xc9\x97\x16\xf3Se\x94@'
p333
tp334
Rp335
aI1
aa(lp336
g2
ag3
ag22
ag17
ag6
(g10
S'\xda\xc1\xac\x8b\xbc\x99\x90@'
p337
tp338
Rp339
aI1
aa(lp340
g2
ag31
ag40
ag5
ag6
(g10
S'\xfb\x06C\x7f\x97\x9b\x91@'
p341
tp342
Rp343
aI1
aa(lp344
g2
ag31
ag22
ag17
ag6
(g10
S'-?\xb5\xef\xb7}\x95@'
p345
tp346
Rp347
aI0
aa(lp348
g2
ag31
ag22
ag17
ag6
(g10
S'\xad\xc8\xde\xbc\xc3\xef\x96@'
p349
tp350
Rp351
aI0
aa(lp352
g2
ag3
ag22
ag5
ag6
(g10
S',{\x1c+\xd5\x0f\x93@'
p353
tp354
Rp355
aI1
aa(lp356
g2
ag31
ag4
ag5
ag6
(g10
S'\x96\x1a\xbeu\xe9[\x95@'
p357
tp358
Rp359
aI1
aa(lp360
g2
ag31
ag4
ag5
ag6
(g10
S't\xf5\xd3\x87\xe3\x84\x92@'
p361
tp362
Rp363
aI0
aa(lp364
g2
ag31
ag4
ag17
ag6
(g10
S'\xca\x946\x81\xe9\x93\x8c@'
p365
tp366
Rp367
aI1
aa(lp368
g2
ag3
ag40
ag17
ag6
(g10
S'\x08\xe6<3j\xc2\x93@'
p369
tp370
Rp371
aI0
aa(lp372
g2
ag31
ag40
ag5
ag6
(g10
S'\x94\xc9\xb8\x1f"\xf7\x96@'
p373
tp374
Rp375
aI1
aa(lp376
g2
ag3
ag4
ag5
ag6
(g10
S'\xe6OxB+u\x8f@'
p377
tp378
Rp379
aI1
aa(lp380
g2
ag3
ag4
ag5
ag6
(g10
S'\xbc\xba\x0cW\xc8\xbd\x94@'
p381
tp382
Rp383
aI0
aa(lp384
g2
ag31
ag40
ag5
ag6
(g10
S'\x84\x99F;\xc0`\x96@'
p385
tp386
Rp387
aI1
aa(lp388
g2
ag3
ag22
ag17
ag6
(g10
S'\x87\xa0?\xd8\xfb \x96@'
p389
tp390
Rp391
aI1
aa(lp392
g2
ag31
ag4
ag17
ag6
(g10
S'\xf6\x1a\xd4\xb0\x96B\x97@'
p393
tp394
Rp395
aI0
aa(lp396
g2
ag31
ag4
ag17
ag6
(g10
S'\x94\x19P;\x04\x97\x8f@'
p397
tp398
Rp399
aI1
aa(lp400
g2
ag31
ag40
ag5
ag6
(g10
S"\xf2 >\xb3'\x97\x96@"
p401
tp402
Rp403
aI1
aa(lp404
g2
ag3
ag4
ag17
ag6
(g10
S'\xda\xa0\x85\x06\x8f\n\x8d@'
p405
tp406
Rp407
aI1
aa(lp408
g2
ag31
ag4
ag5
ag6
(g10
S'\x96d\x06\xe8\x0e\xa1\x92@'
p409
tp410
Rp411
aI1
aa(lp412
g2
ag3
ag22
ag17
ag6
(g10
S'\x8b\x03\xde6\xef]\x93@'
p413
tp414
Rp415
aI0
aa(lp416
g2
ag31
ag40
ag5
ag6
(g10
S'\x04dHpk\x12\x92@'
p417
tp418
Rp419
aI1
aa(lp420
g2
ag3
ag4
ag17
ag6
(g10
S'\xd4E\x8d\x1buA\x97@'
p421
tp422
Rp423
aI1
aa(lp424
g2
ag31
ag40
ag5
ag6
(g10
S'~\x84#\x8d\x83\x1e\x97@'
p425
tp426
Rp427
aI0
aa(lp428
g2
ag31
ag22
ag5
ag6
(g10
S'\xaa\xa2\xa4\xdf\x1d\xd3\x92@'
p429
tp430
Rp431
aI1
aa(lp432
g2
ag3
ag4
ag17
ag6
(g10
S'\x00\x04\x90\xd7\xe4\xb0\x91@'
p433
tp434
Rp435
aI0
aa(lp436
g2
ag3
ag4
ag17
ag6
(g10
S'\x8ec\x1cN\x8e)\x92@'
p437
tp438
Rp439
aI1
aa(lp440
g2
ag3
ag4
ag17
ag6
(g10
S'\xbc\xe3\xb7\x0eq\xe9\x8f@'
p441
tp442
Rp443
aI0
aa(lp444
g2
ag31
ag40
ag5
ag6
(g10
S'nCB|\x15\xf2\x8d@'
p445
tp446
Rp447
aI0
aa(lp448
g2
ag31
ag4
ag17
ag6
(g10
S'\xa5J\xf1J}\xf2\x8c@'
p449
tp450
Rp451
aI0
aa(lp452
g2
ag3
ag4
ag5
ag6
(g10
S'\x08\xd9g\x8f\x0f\xac\x8d@'
p453
tp454
Rp455
aI0
aa(lp456
g2
ag3
ag40
ag17
ag6
(g10
S'Y\x10V+P\xb0\x91@'
p457
tp458
Rp459
aI0
aa(lp460
g2
ag31
ag4
ag5
ag6
(g10
S'\x0b\xc1\xf3\x82\xa1\xb9\x8f@'
p461
tp462
Rp463
aI0
aa(lp464
g2
ag31
ag40
ag5
ag6
(g10
S'\x98\xb0[\xec\xf0\xc2\x8f@'
p465
tp466
Rp467
aI0
aa(lp468
g2
ag31
ag4
ag5
ag6
(g10
S'\xf6\xeb\x0f\xf0\x1dr\x90@'
p469
tp470
Rp471
aI1
aa(lp472
g2
ag3
ag4
ag5
ag6
(g10
S'\xf2\x1c#\xfa\xed&\x97@'
p473
tp474
Rp475
aI0
aa(lp476
g2
ag3
ag4
ag17
ag6
(g10
S'\xdc\xbb\x7f\xf0\xd0\xea\x8d@'
p477
tp478
Rp479
aI1
aa(lp480
g2
ag3
ag40
ag5
ag6
(g10
S'\x9bHNEGk\x96@'
p481
tp482
Rp483
aI1
aa(lp484
g2
ag3
ag40
ag17
ag6
(g10
S'\xc1\x13\xdcBs\xa8\x8c@'
p485
tp486
Rp487
aI1
aa(lp488
g2
ag31
ag22
ag17
ag6
(g10
S'\xe1\xcc\rS\xfc:\x8d@'
p489
tp490
Rp491
aI1
aa(lp492
g2
ag31
ag22
ag17
ag6
(g10
S'\xb8e\xc0\xd3\x92r\x95@'
p493
tp494
Rp495
aI0
aa(lp496
g2
ag31
ag22
ag17
ag6
(g10
S'm;c*\xfda\x94@'
p497
tp498
Rp499
aI1
aa(lp500
g2
ag3
ag22
ag5
ag6
(g10
S'3\x8f\x03\xaf\x16G\x95@'
p501
tp502
Rp503
aI1
aa(lp504
g2
ag31
ag22
ag5
ag6
(g10
S"\x98'\xfc\r\x10F\x8c@"
p505
tp506
Rp507
aI1
aa(lp508
g2
ag31
ag4
ag5
ag6
(g10
S'\xb3h=bg\x05\x96@'
p509
tp510
Rp511
aI0
aa(lp512
g2
ag3
ag4
ag17
ag6
(g10
S'\x1f\x05H\xf6P\t\x96@'
p513
tp514
Rp515
aI1
aa(lp516
g2
ag31
ag40
ag5
ag6
(g10
S'|\x87C\x8c-3\x94@'
p517
tp518
Rp519
aI1
aa(lp520
g2
ag3
ag22
ag5
ag6
(g10
S'\r/\xc9\xbe\t]\x92@'
p521
tp522
Rp523
aI1
aa(lp524
g2
ag3
ag4
ag5
ag6
(g10
S'D\xde\xda1L\xc1\x96@'
p525
tp526
Rp527
aI1
aa(lp528
g2
ag31
ag22
ag17
ag6
(g10
S'\x04\xfb\xa5\x97\x19\xd9\x93@'
p529
tp530
Rp531
aI0
aa(lp532
g2
ag31
ag22
ag5
ag6
(g10
S'\x1c\xad\xb6\xb1\xc7\xa7\x94@'
p533
tp534
Rp535
aI1
aa(lp536
g2
ag3
ag4
ag5
ag6
(g10
S'\xe1\xf8\xe2.\xec\xac\x8e@'
p537
tp538
Rp539
aI1
aa(lp540
g2
ag31
ag22
ag5
ag6
(g10
S'\xe5\xca\xc6o\x1d\x80\x8e@'
p541
tp542
Rp543
aI1
aa(lp544
g2
ag31
ag40
ag17
ag6
(g10
S'\xe4\x04\x88\xf4\x14\x1d\x94@'
p545
tp546
Rp547
aI1
aa(lp548
g2
ag31
ag22
ag17
ag6
(g10
S'\xed\xa4\xcfhdz\x92@'
p549
tp550
Rp551
aI1
aa(lp552
g2
ag3
ag40
ag17
ag6
(g10
S'\xc0\xc3Cs\xe5\xde\x96@'
p553
tp554
Rp555
aI1
aa(lp556
g2
ag3
ag4
ag5
ag6
(g10
S'w\xd0\x1f\xfde\x13\x91@'
p557
tp558
Rp559
aI1
aa(lp560
g2
ag3
ag4
ag17
ag6
(g10
S'\xb0Y\xc3\x99\xae \x91@'
p561
tp562
Rp563
aI0
aa(lp564
g2
ag31
ag40
ag17
ag6
(g10
S'4\xc8\xdcL\xe8\xfe\x8e@'
p565
tp566
Rp567
aI0
aa(lp568
g2
ag31
ag22
ag5
ag6
(g10
S'}EG%\xc4\xfb\x91@'
p569
tp570
Rp571
aI1
aa(lp572
g2
ag3
ag22
ag5
ag6
(g10
S'[g,\xe4\xc6+\x94@'
p573
tp574
Rp575
aI1
aa(lp576
g2
ag3
ag4
ag5
ag6
(g10
S'\x9ap6\x9c\xbd\xf7\x96@'
p577
tp578
Rp579
aI0
aa(lp580
g2
ag3
ag22
ag5
ag6
(g10
S'[+\xb3\x9coW\x94@'
p581
tp582
Rp583
aI0
aa(lp584
g2
ag3
ag4
ag5
ag6
(g10
S'\xb4P\x15\x86\xb8\xfd\x94@'
p585
tp586
Rp587
aI1
aa(lp588
g2
ag31
ag22
ag17
ag6
(g10
S'\xaat4\xaf\x11\x96\x8c@'
p589
tp590
Rp591
aI1
aa(lp592
g2
ag3
ag40
ag17
ag6
(g10
S'\xdf\xf7\x910\xfc\x8d\x93@'
p593
tp594
Rp595
aI1
aa(lp596
g2
ag3
ag22
ag17
ag6
(g10
S'\xa1\x94\x86ivK\x91@'
p597
tp598
Rp599
aI1
aa(lp600
g2
ag31
ag40
ag5
ag6
(g10
S'\xf6\xd1|zm\x19\x96@'
p601
tp602
Rp603
aI1
aa(lp604
g2
ag3
ag4
ag5
ag6
(g10
S'\x84m\t\xf7\xbc\xe2\x90@'
p605
tp606
Rp607
aI0
aa(lp608
g2
ag31
ag40
ag17
ag6
(g10
S'6M\x90>\xc4\xe2\x92@'
p609
tp610
Rp611
aI1
aa(lp612
g2
ag3
ag22
ag5
ag6
(g10
S'\xa2hH~^\x1b\x92@'
p613
tp614
Rp615
aI0
aa(lp616
g2
ag3
ag4
ag5
ag6
(g10
S'\xc0\x82\x1d\xb28\xa8\x95@'
p617
tp618
Rp619
aI1
aa(lp620
g2
ag3
ag4
ag5
ag6
(g10
S'\x11\xb2\xfcD\x0f \x8f@'
p621
tp622
Rp623
aI0
aa(lp624
g2
ag31
ag4
ag17
ag6
(g10
S'\xf9RG\xf4\xfa`\x93@'
p625
tp626
Rp627
aI0
aa(lp628
g2
ag3
ag22
ag17
ag6
(g10
S'\x01mttex\x96@'
p629
tp630
Rp631
aI0
aa(lp632
g2
ag31
ag22
ag17
ag6
(g10
S'\x9d\x80\xcb\xa0\x8d\x9f\x93@'
p633
tp634
Rp635
aI1
aa(lp636
g2
ag3
ag4
ag5
ag6
(g10
S'X\x85\xc6\xd5F\xcb\x91@'
p637
tp638
Rp639
aI1
aa(lp640
g2
ag31
ag4
ag17
ag6
(g10
S'p\x8bH\x11\x05\xdc\x8f@'
p641
tp642
Rp643
aI1
aa(lp644
g2
ag3
ag22
ag17
ag6
(g10
S'\xc9\xa9\xe9\x1cL\x8a\x92@'
p645
tp646
Rp647
aI1
aa(lp648
g2
ag3
ag4
ag5
ag6
(g10
S"|e\xf5XD'\x96@"
p649
tp650
Rp651
aI1
aa(lp652
g2
ag3
ag22
ag17
ag6
(g10
S'\xb6U\x84\xc9?\xca\x95@'
p653
tp654
Rp655
aI0
aa(lp656
g2
ag3
ag40
ag5
ag6
(g10
S'\x94\x9b\xd9\x9f\xb6v\x95@'
p657
tp658
Rp659
aI0
aa(lp660
g2
ag31
ag4
ag5
ag6
(g10
S'LsE\x16\x0b\x1b\x96@'
p661
tp662
Rp663
aI0
aa(lp664
g2
ag31
ag40
ag5
ag6
(g10
S'\xad)/2\xd1,\x93@'
p665
tp666
Rp667
aI1
aa(lp668
g2
ag3
ag40
ag5
ag6
(g10
S'D\xe5\x1c=\xaa4\x97@'
p669
tp670
Rp671
aI1
aa(lp672
g2
ag31
ag40
ag17
ag6
(g10
S'\xb2n\xc0.\x9b*\x95@'
p673
tp674
Rp675
aI0
aa(lp676
g2
ag3
ag40
ag17
ag6
(g10
S"\xf4\xfd\x9aH\x9f'\x8e@"
p677
tp678
Rp679
aI1
aa(lp680
g2
ag3
ag40
ag17
ag6
(g10
S'\xf8^\xde\xc7.\x0f\x97@'
p681
tp682
Rp683
aI1
aa(lp684
g2
ag3
ag22
ag17
ag6
(g10
S'9\x10X\xe3\xb6\xa1\x8d@'
p685
tp686
Rp687
aI0
aa.