(lp0
(lp1
S'short'
p2
ag2
aS'letter'
p3
aS'absent'
p4
acnumpy.core.multiarray
scalar
p5
(cnumpy
dtype
p6
(S'f8'
p7
I0
I1
tp8
Rp9
(I3
S'<'
p10
NNNI-1
I-1
I0
tp11
bS'\x90\x8d\xf7p+\x91\x8c@'
p12
tp13
Rp14
aI0
aa(lp15
g2
ag2
ag3
aS'present'
p16
ag5
(g9
S'\xa2\x0b\x0fw\x8bK\x96@'
p17
tp18
Rp19
aI0
aa(lp20
g2
ag2
aS'house'
p21
ag16
ag5
(g9
S'\x17\xac\x10It\xd9\x94@'
p22
tp23
Rp24
aI1
aa(lp25
g2
ag2
aS'face'
p26
ag4
ag5
(g9
S'`\x13\n9UG\x93@'
p27
tp28
Rp29
aI1
aa(lp30
g2
ag2
ag21
ag16
ag5
(g9
S'<\xa0o\x97\xfa\t\x94@'
p31
tp32
Rp33
aI1
aa(lp34
g2
ag2
ag3
ag4
ag5
(g9
S'\xeeS.\xfc\x06G\x8c@'
p35
tp36
Rp37
aI0
aa(lp38
g2
ag2
ag21
ag16
ag5
(g9
S'\xff\xf6p\x16\xb4;\x93@'
p39
tp40
Rp41
aI0
aa(lp42
g2
ag2
ag3
ag16
ag5
(g9
S'_\x9a)B\xb94\x97@'
p43
tp44
Rp45
aI1
aa(lp46
g2
ag2
ag26
ag4
ag5
(g9
S'\xb9\x16S\xed\xd0\x14\x92@'
p47
tp48
Rp49
aI1
aa(lp50
g2
ag2
ag21
ag16
ag5
(g9
S'F\xf4\xe2\xee\xba\xda\x8e@'
p51
tp52
Rp53
aI0
aa(lp54
g2
ag2
ag26
ag4
ag5
(g9
S'\xd6\x1bY\xcda\xd3\x8d@'
p55
tp56
Rp57
aI1
aa(lp58
g2
ag2
ag26
ag16
ag5
(g9
S't\xab<\xf7k\x99\x92@'
p59
tp60
Rp61
aI0
aa(lp62
g2
ag2
ag3
ag4
ag5
(g9
S'\xf3\xf3\x80\xaa\xafl\x93@'
p63
tp64
Rp65
aI0
aa(lp66
g2
ag2
ag26
ag16
ag5
(g9
S'WZD\x0c\xbbf\x90@'
p67
tp68
Rp69
aI0
aa(lp70
g2
ag2
ag3
ag4
ag5
(g9
S's\x00\x9a\xb4f`\x95@'
p71
tp72
Rp73
aI1
aa(lp74
g2
ag2
ag26
ag16
ag5
(g9
S'\x92\x1er\x81P\xd2\x90@'
p75
tp76
Rp77
aI0
aa(lp78
g2
ag2
ag3
ag4
ag5
(g9
S'\xec\x85\xd7\x17\xffP\x92@'
p79
tp80
Rp81
aI0
aa(lp82
g2
ag2
ag21
ag16
ag5
(g9
S'\xf9D|\x16~\x17\x91@'
p83
tp84
Rp85
aI1
aa(lp86
g2
ag2
ag26
ag4
ag5
(g9
S'rmY\x14E\x80\x90@'
p87
tp88
Rp89
aI1
aa(lp90
g2
ag2
ag3
ag16
ag5
(g9
S'\x8eI\x19Y\xddg\x8d@'
p91
tp92
Rp93
aI1
aa(lp94
g2
ag2
ag26
ag16
ag5
(g9
S'\xa7\x9b\x1eO\xcc\xa3\x8c@'
p95
tp96
Rp97
aI1
aa(lp98
g2
ag2
ag21
ag16
ag5
(g9
S'\xb4\x7fr\x832\r\x97@'
p99
tp100
Rp101
aI1
aa(lp102
g2
ag2
ag3
ag16
ag5
(g9
S'\x87\x96\xae\x94\xeaQ\x92@'
p103
tp104
Rp105
aI0
aa(lp106
g2
ag2
ag3
ag4
ag5
(g9
S'\x04\xbcE\x0b\xb2\xb7\x8d@'
p107
tp108
Rp109
aI1
aa(lp110
g2
ag2
ag26
ag16
ag5
(g9
S'\x9c\x86E/\xa9\x9c\x96@'
p111
tp112
Rp113
aI1
aa(lp114
g2
ag2
ag26
ag16
ag5
(g9
S'\xa1a\x96\xdf\xd1\xc3\x96@'
p115
tp116
Rp117
aI0
aa(lp118
g2
ag2
ag26
ag16
ag5
(g9
S'\x82\xeb\x04>k:\x94@'
p119
tp120
Rp121
aI0
aa(lp122
g2
ag2
ag21
ag16
ag5
(g9
S'\x80\xf8X\r\xf4\xdc\x93@'
p123
tp124
Rp125
aI1
aa(lp126
g2
ag2
ag26
ag4
ag5
(g9
S'\\\xd9E\x9c\xb2D\x90@'
p127
tp128
Rp129
aI0
aa(lp130
g2
ag2
ag26
ag4
ag5
(g9
S'\xe44\xf57\x16(\x8c@'
p131
tp132
Rp133
aI0
aa(lp134
g2
ag2
ag26
ag4
ag5
(g9
S'c\x8aZ\xba\xc9\x12\x93@'
p135
tp136
Rp137
aI1
aa(lp138
g2
ag2
ag21
ag16
ag5
(g9
S'F\xdb\x1fG\xcc\x83\x8d@'
p139
tp140
Rp141
aI1
aa(lp142
g2
ag2
ag21
ag16
ag5
(g9
S'\x90\t\xf4\x91$!\x97@'
p143
tp144
Rp145
aI0
aa(lp146
g2
ag2
ag26
ag4
ag5
(g9
S'\x1eG\xf9)SU\x94@'
p147
tp148
Rp149
aI0
aa(lp150
g2
ag2
ag21
ag16
ag5
(g9
S'~Q\xcf\xccJ9\x97@'
p151
tp152
Rp153
aI1
aa(lp154
g2
ag2
ag21
ag4
ag5
(g9
S'{lU]k}\x90@'
p155
tp156
Rp157
aI1
aa(lp158
g2
ag2
ag21
ag4
ag5
(g9
S'\x80\xd4\xf7g\xdbf\x95@'
p159
tp160
Rp161
aI0
aa(lp162
g2
ag2
ag3
ag4
ag5
(g9
S'\x0ej{.>\x81\x96@'
p163
tp164
Rp165
aI1
aa(lp166
g2
ag2
ag3
ag16
ag5
(g9
S'2\xc1]R\x87\xad\x8d@'
p167
tp168
Rp169
aI1
aa(lp170
g2
ag2
ag21
ag16
ag5
(g9
S'\x96\xf7\xd2 c\xde\x93@'
p171
tp172
Rp173
aI0
aa(lp174
g2
ag2
ag3
ag4
ag5
(g9
S'\xfa\xa0\xf1J\xcf\xeb\x96@'
p175
tp176
Rp177
aI1
aa(lp178
g2
ag2
ag3
ag4
ag5
(g9
S'\xd8]/\xaf*:\x8f@'
p179
tp180
Rp181
aI0
aa(lp182
g2
ag2
ag26
ag4
ag5
(g9
S'\xf0\xca\xdb\x1a>K\x95@'
p183
tp184
Rp185
aI1
aa(lp186
g2
ag2
ag21
ag16
ag5
(g9
S'}Yq\x86?\x9f\x90@'
p187
tp188
Rp189
aI1
aa(lp190
g2
ag2
ag21
ag16
ag5
(g9
S'\xff\x1bk\x1f\xac\x9f\x90@'
p191
tp192
Rp193
aI0
aa(lp194
g2
ag2
ag21
ag16
ag5
(g9
S'@\x831\xb5\xf7h\x92@'
p195
tp196
Rp197
aI0
aa(lp198
g2
ag2
ag26
ag4
ag5
(g9
S'\n\xe5<|\xec\xdc\x8e@'
p199
tp200
Rp201
aI0
aa(lp202
g2
ag2
ag21
ag4
ag5
(g9
S'.>>\xc7\xed*\x92@'
p203
tp204
Rp205
aI0
aa(lp206
g2
ag2
ag3
ag4
ag5
(g9
S'xk\xfbM~\xcc\x92@'
p207
tp208
Rp209
aI0
aa(lp210
g2
ag2
ag3
ag16
ag5
(g9
S'\xeb\xbc\xe3"94\x96@'
p211
tp212
Rp213
aI0
aa(lp214
g2
ag2
ag3
ag4
ag5
(g9
S'\x89\xbdI\xf07/\x97@'
p215
tp216
Rp217
aI1
aa(lp218
g2
ag2
ag26
ag16
ag5
(g9
S'\x94\x0fW\x89\xfb=\x93@'
p219
tp220
Rp221
aI0
aa(lp222
g2
ag2
ag21
ag16
ag5
(g9
S'\x12*=\xb2\x99a\x97@'
p223
tp224
Rp225
aI1
aa(lp226
g2
ag2
ag3
ag4
ag5
(g9
S'\xa5L\x948\x05\x05\x8d@'
p227
tp228
Rp229
aI1
aa(lp230
g2
ag2
ag3
ag4
ag5
(g9
S'\x92\x1eTy3[\x97@'
p231
tp232
Rp233
aI0
aa(lp234
g2
ag2
ag3
ag16
ag5
(g9
S'H\xfb\x83\x92F\xcd\x8d@'
p235
tp236
Rp237
aI1
aa(lp238
g2
ag2
ag26
ag16
ag5
(g9
S'\xd0\x8f\x1cf\xa2(\x90@'
p239
tp240
Rp241
aI0
aa(lp242
g2
ag2
ag26
ag4
ag5
(g9
S'\x88o\xb0k\xccK\x92@'
p243
tp244
Rp245
aI1
aa(lp246
g2
ag2
ag3
ag16
ag5
(g9
S'z\x91y\xdc\xd9\xd9\x91@'
p247
tp248
Rp249
aI0
aa(lp250
g2
ag2
ag26
ag16
ag5
(g9
S'\xb0.\x1c\x85Nk\x8f@'
p251
tp252
Rp253
aI1
aa(lp254
g2
ag2
ag21
ag4
ag5
(g9
S'x\xbf\x05"V\xb9\x95@'
p255
tp256
Rp257
aI1
aa(lp258
g2
ag2
ag21
ag16
ag5
(g9
S'\\R\xf6U\xa5\xd1\x8c@'
p259
tp260
Rp261
aI0
aa(lp262
g2
ag2
ag26
ag4
ag5
(g9
S'4k\x9f\xfc\xe3\x8e\x8c@'
p263
tp264
Rp265
aI0
aa(lp266
g2
ag2
ag21
ag4
ag5
(g9
S'\xc4y\xd1,v\x1d\x97@'
p267
tp268
Rp269
aI0
aa(lp270
g2
ag2
ag26
ag16
ag5
(g9
S'\x88\x81\x8e\xf66\xe0\x8e@'
p271
tp272
Rp273
aI0
aa(lp274
g2
ag2
ag26
ag4
ag5
(g9
S'?e\xd3W?D\x94@'
p275
tp276
Rp277
aI1
aa(lp278
g2
ag2
ag3
ag16
ag5
(g9
S'^\xea\xfb\xa6\xbb\x1f\x91@'
p279
tp280
Rp281
aI0
aa(lp282
g2
ag2
ag21
ag16
ag5
(g9
S'\x06,\xac_\xd4\xd6\x95@'
p283
tp284
Rp285
aI0
aa(lp286
g2
ag2
ag26
ag4
ag5
(g9
S'\xa6\x957\xa2\x8d\xee\x96@'
p287
tp288
Rp289
aI0
aa(lp290
g2
ag2
ag26
ag16
ag5
(g9
S'\x02\xe3\xe2\xbc&\xf8\x94@'
p291
tp292
Rp293
aI0
aa(lp294
g2
ag2
ag3
ag4
ag5
(g9
S'\xe8\xc5\r\x05\xe8j\x94@'
p295
tp296
Rp297
aI0
aa(lp298
g2
ag2
ag3
ag4
ag5
(g9
S'hy:\xf2\x9f\x9a\x8f@'
p299
tp300
Rp301
aI1
aa(lp302
g2
ag2
ag21
ag16
ag5
(g9
S't\xc2\xacMPF\x95@'
p303
tp304
Rp305
aI0
aa(lp306
g2
ag2
ag3
ag16
ag5
(g9
S'=V\x07.\rB\x8d@'
p307
tp308
Rp309
aI0
aa(lp310
g2
ag2
ag3
ag16
ag5
(g9
S'N\xe8\xe0/\xed\x1b\x95@'
p311
tp312
Rp313
aI1
aa(lp314
g2
ag2
ag3
ag16
ag5
(g9
S'\xed,^\xf4\xcf\xa1\x8c@'
p315
tp316
Rp317
aI0
aa(lp318
g2
ag2
ag26
ag4
ag5
(g9
S'\xe9`\x05sJ\x1a\x90@'
p319
tp320
Rp321
aI1
aa(lp322
g2
ag2
ag21
ag4
ag5
(g9
S'\xa2\x8d\xc1\x7f1\x19\x91@'
p323
tp324
Rp325
aI1
aa(lp326
g2
ag2
ag21
ag16
ag5
(g9
S'Z0./*p\x96@'
p327
tp328
Rp329
aI0
aa(lp330
g2
ag2
ag3
ag16
ag5
(g9
S'\x14\xeb%\xd9\xa2L\x96@'
p331
tp332
Rp333
aI0
aa(lp334
g2
ag2
ag3
ag4
ag5
(g9
S'\x12\xfeq\xd3&7\x90@'
p335
tp336
Rp337
aI1
aa(lp338
g2
ag2
ag21
ag16
ag5
(g9
S"4\x19'X\xbcF\x97@"
p339
tp340
Rp341
aI0
aa(lp342
g2
ag2
ag21
ag4
ag5
(g9
S'\x12\xbd\xaf\x8f4\xd2\x8d@'
p343
tp344
Rp345
aI1
aa(lp346
g2
ag2
ag26
ag4
ag5
(g9
S'\xc2$\x81@\x10V\x94@'
p347
tp348
Rp349
aI0
aa(lp350
g2
ag2
ag3
ag16
ag5
(g9
S'6\x08\xe8\xe0\xa4,\x96@'
p351
tp352
Rp353
aI1
aa(lp354
g2
ag2
ag3
ag16
ag5
(g9
S'\x8dc\xb9\x86\x8fz\x91@'
p355
tp356
Rp357
aI0
aa(lp358
g2
ag2
ag21
ag16
ag5
(g9
S'\xdd\x8e\xa3(w\x96\x90@'
p359
tp360
Rp361
aI1
aa(lp362
g2
ag2
ag3
ag16
ag5
(g9
S'\xa48[\x12\xb9x\x93@'
p363
tp364
Rp365
aI0
aa(lp366
g2
ag2
ag26
ag4
ag5
(g9
S'\xf8\xe4\x9b\xc3\x06\xbf\x90@'
p367
tp368
Rp369
aI0
aa(lp370
g2
ag2
ag3
ag16
ag5
(g9
S'\\\x19\x148\x8a5\x95@'
p371
tp372
Rp373
aI0
aa(lp374
g2
ag2
ag3
ag16
ag5
(g9
S'\xf5\x86fu\xae5\x94@'
p375
tp376
Rp377
aI1
aa(lp378
g2
ag2
ag21
ag4
ag5
(g9
S'\x8f\xeb\x88\xdf\x84d\x92@'
p379
tp380
Rp381
aI1
aa(lp382
g2
ag2
ag26
ag4
ag5
(g9
S'4&\xf8\xf0\xeb\xad\x94@'
p383
tp384
Rp385
aI0
aa(lp386
g2
ag2
ag21
ag4
ag5
(g9
S'|\xaff\x1ePV\x95@'
p387
tp388
Rp389
aI1
aa(lp390
g2
ag2
ag26
ag4
ag5
(g9
S'\xa2\xe3\xec\xa0\x8d\xf5\x90@'
p391
tp392
Rp393
aI0
aa(lp394
g2
ag2
ag21
ag16
ag5
(g9
S'\xece\x0b\xe8\xe3\xfd\x95@'
p395
tp396
Rp397
aI0
aa(lp398
g2
ag2
ag21
ag16
ag5
(g9
S'V\x0ba\xce\x1a\xb3\x90@'
p399
tp400
Rp401
aI1
aa(lp402
g2
ag2
ag3
ag16
ag5
(g9
S'\xf8\x98@\n\x1a\x18\x95@'
p403
tp404
Rp405
aI0
aa(lp406
g2
ag2
ag26
ag4
ag5
(g9
S'V\xb4\x1e\xfa\xa0i\x97@'
p407
tp408
Rp409
aI1
aa(lp410
g2
ag2
ag3
ag4
ag5
(g9
S'\x005\xc7\x96\x86\n\x8f@'
p411
tp412
Rp413
aI1
aa(lp414
g2
ag2
ag3
ag16
ag5
(g9
S'\xac\xa9\x90\xf0;D\x8e@'
p415
tp416
Rp417
aI0
aa(lp418
g2
ag2
ag21
ag16
ag5
(g9
S'\xbe\x99\x99\xb7V5\x92@'
p419
tp420
Rp421
aI1
aa(lp422
g2
ag2
ag26
ag4
ag5
(g9
S'2\x86w\xf8\x98\xeb\x90@'
p423
tp424
Rp425
aI0
aa(lp426
g2
ag2
ag21
ag4
ag5
(g9
S'\xfd^9\xb4\x89b\x90@'
p427
tp428
Rp429
aI1
aa(lp430
g2
ag2
ag26
ag4
ag5
(g9
S'\xd4\xa2"\xdfT4\x95@'
p431
tp432
Rp433
aI1
aa(lp434
g2
ag2
ag26
ag16
ag5
(g9
S'J\xa8>M\t\xd3\x95@'
p435
tp436
Rp437
aI1
aa(lp438
g2
ag2
ag26
ag16
ag5
(g9
S'\xbf\xc3\xb4#\x0b\xab\x94@'
p439
tp440
Rp441
aI0
aa(lp442
g2
ag2
ag26
ag16
ag5
(g9
S'\x18\x06=\x81\xdf\x82\x92@'
p443
tp444
Rp445
aI0
aa(lp446
g2
ag2
ag3
ag16
ag5
(g9
S'\x89\xbaH\xd58\xad\x95@'
p447
tp448
Rp449
aI0
aa(lp450
g2
ag2
ag26
ag4
ag5
(g9
S'\xc9\xe9\xa9\x03\x8di\x91@'
p451
tp452
Rp453
aI0
aa(lp454
g2
ag2
ag3
ag16
ag5
(g9
S'\x90\xda\xe9%\xa2Q\x94@'
p455
tp456
Rp457
aI0
aa(lp458
g2
ag2
ag26
ag4
ag5
(g9
S'v\xed\xd7\x9a$\x07\x94@'
p459
tp460
Rp461
aI0
aa(lp462
g2
ag2
ag21
ag4
ag5
(g9
S'\x8a0.@\x128\x96@'
p463
tp464
Rp465
aI1
aa(lp466
g2
ag2
ag21
ag4
ag5
(g9
S'\x02\xe49\x1e\xfe\xf7\x95@'
p467
tp468
Rp469
aI0
aa(lp470
g2
ag2
ag3
ag4
ag5
(g9
S'!\xd2\x8f\xf6\xe9\x06\x92@'
p471
tp472
Rp473
aI1
aa(lp474
g2
ag2
ag21
ag16
ag5
(g9
S'\xbe\xdc\xf9<\x03\xf0\x8c@'
p475
tp476
Rp477
aI0
aa(lp478
g2
ag2
ag21
ag16
ag5
(g9
S'\xf6\x9f\xd2%\x8a\x9e\x8f@'
p479
tp480
Rp481
aI1
aa(lp482
g2
ag2
ag21
ag16
ag5
(g9
S'\r\x89\xc5\xec\x02\x8d\x90@'
p483
tp484
Rp485
aI0
aa(lp486
g2
ag2
ag21
ag4
ag5
(g9
S']\x9d"\x05A\x02\x90@'
p487
tp488
Rp489
aI1
aa(lp490
g2
ag2
ag26
ag16
ag5
(g9
S'\xfa\xd0O\xe1\xd2\x1c\x94@'
p491
tp492
Rp493
aI0
aa(lp494
g2
ag2
ag26
ag16
ag5
(g9
S'"\xe5\xa8\xc6\xcf\xbc\x93@'
p495
tp496
Rp497
aI0
aa(lp498
g2
ag2
ag21
ag4
ag5
(g9
S'\xa6s\x18h\xc5l\x97@'
p499
tp500
Rp501
aI1
aa(lp502
g2
ag2
ag21
ag16
ag5
(g9
S'\x10\x10\xcb\xf8\xf1n\x8c@'
p503
tp504
Rp505
aI0
aa(lp506
g2
ag2
ag21
ag4
ag5
(g9
S'*\x9ck\xcaz\xd0\x93@'
p507
tp508
Rp509
aI1
aa(lp510
g2
ag2
ag3
ag16
ag5
(g9
S'2U\xc5\xec\xe3\x0c\x8e@'
p511
tp512
Rp513
aI1
aa(lp514
g2
ag2
ag26
ag16
ag5
(g9
S'\xa3B;u#\x87\x8f@'
p515
tp516
Rp517
aI1
aa(lp518
g2
ag2
ag3
ag4
ag5
(g9
S'\xf8x\x03\xe2\x15\xe8\x8f@'
p519
tp520
Rp521
aI1
aa(lp522
g2
ag2
ag21
ag4
ag5
(g9
S'\x93\xd4\x14\x97@\x0b\x90@'
p523
tp524
Rp525
aI1
aa(lp526
g2
ag2
ag3
ag16
ag5
(g9
S'&\xb3\xa2\xe6\xe5\x9e\x91@'
p527
tp528
Rp529
aI1
aa(lp530
g2
ag2
ag3
ag4
ag5
(g9
S':\xb7\xe58\xf1\xa0\x93@'
p531
tp532
Rp533
aI0
aa(lp534
g2
ag2
ag26
ag16
ag5
(g9
S'\xa2\x10>\x93\xd2P\x97@'
p535
tp536
Rp537
aI1
aa(lp538
g2
ag2
ag26
ag16
ag5
(g9
S'\xe8\x9b\xf2\xa8\x89m\x8f@'
p539
tp540
Rp541
aI1
aa(lp542
g2
ag2
ag3
ag16
ag5
(g9
S'8\xbc\\\xc5o\x9d\x96@'
p543
tp544
Rp545
aI1
aa(lp546
g2
ag2
ag3
ag4
ag5
(g9
S'Z.\x11{\x9fl\x90@'
p547
tp548
Rp549
aI1
aa(lp550
g2
ag2
ag21
ag16
ag5
(g9
S'\xa8B\x80\xbd$P\x8c@'
p551
tp552
Rp553
aI0
aa(lp554
g2
ag2
ag26
ag4
ag5
(g9
S'o/*oe\xcd\x8f@'
p555
tp556
Rp557
aI1
aa(lp558
g2
ag2
ag3
ag4
ag5
(g9
S'\xfe\xf1k\xf5\x16\x1f\x94@'
p559
tp560
Rp561
aI1
aa(lp562
g2
ag2
ag21
ag16
ag5
(g9
S'=\x88\xb6O\x80\xf1\x96@'
p563
tp564
Rp565
aI1
aa(lp566
g2
ag2
ag26
ag16
ag5
(g9
S'$\xc8\xfb\xc4F\x12\x93@'
p567
tp568
Rp569
aI0
aa(lp570
g2
ag2
ag26
ag4
ag5
(g9
S'\xb6\x16\xc7\xae\x1a\xc7\x93@'
p571
tp572
Rp573
aI0
aa(lp574
g2
ag2
ag3
ag4
ag5
(g9
S'\xd1\x16k\x1a\x8d-\x94@'
p575
tp576
Rp577
aI1
aa(lp578
g2
ag2
ag21
ag16
ag5
(g9
S'\xee\x9d#\x04\x93\xf1\x92@'
p579
tp580
Rp581
aI0
aa(lp582
g2
ag2
ag21
ag4
ag5
(g9
S'\xbb\xd6\x1f\xda\xa3\xdf\x90@'
p583
tp584
Rp585
aI1
aa(lp586
g2
ag2
ag26
ag16
ag5
(g9
S'\x90\x19\x9e\xf1\x10\x10\x90@'
p587
tp588
Rp589
aI0
aa(lp590
g2
ag2
ag3
ag16
ag5
(g9
S'\xc8\xad|v\x98\x81\x90@'
p591
tp592
Rp593
aI0
aa(lp594
g2
ag2
ag3
ag16
ag5
(g9
S'\xd3\x052\xea\xfb\xf0\x90@'
p595
tp596
Rp597
aI1
aa(lp598
g2
ag2
ag21
ag4
ag5
(g9
S'h\xd4\xafJ\xe4\x1c\x92@'
p599
tp600
Rp601
aI0
aa(lp602
g2
ag2
ag26
ag16
ag5
(g9
S'\x98.0\x8a\x94\t\x8e@'
p603
tp604
Rp605
aI0
aa(lp606
g2
ag2
ag26
ag4
ag5
(g9
S'\xcb\xeb\xd8c\x9e\xd4\x93@'
p607
tp608
Rp609
aI0
aa(lp610
g2
ag2
ag3
ag16
ag5
(g9
S'\xad\x13\xb5\xfegU\x8d@'
p611
tp612
Rp613
aI1
aa(lp614
g2
ag2
ag3
ag4
ag5
(g9
S'\\\xe7\x85\xdd\xd8G\x92@'
p615
tp616
Rp617
aI1
aa(lp618
g2
ag2
ag21
ag4
ag5
(g9
S'#\x1a{\x8c\xfa)\x92@'
p619
tp620
Rp621
aI0
aa(lp622
g2
ag2
ag21
ag16
ag5
(g9
S'\x10\x90\x9f\xfb\xe0\xd4\x95@'
p623
tp624
Rp625
aI1
aa(lp626
g2
ag2
ag26
ag16
ag5
(g9
S'\xe4\xd4\x03\xfb\x95\xd1\x94@'
p627
tp628
Rp629
aI1
aa(lp630
g2
ag2
ag21
ag4
ag5
(g9
S'\ts\xaeJ\xb1\xcd\x93@'
p631
tp632
Rp633
aI0
aa(lp634
g2
ag2
ag26
ag4
ag5
(g9
S'L\x98\x88\x13\xa0\x9c\x92@'
p635
tp636
Rp637
aI1
aa(lp638
g2
ag2
ag26
ag4
ag5
(g9
S'\xa4\xed\xc3\x079b\x94@'
p639
tp640
Rp641
aI0
aa(lp642
g2
ag2
ag21
ag16
ag5
(g9
S'\xac6\xd4\x1bdF\x97@'
p643
tp644
Rp645
aI1
aa(lp646
g2
ag2
ag26
ag16
ag5
(g9
S'|\xb3O\x13\x9aG\x95@'
p647
tp648
Rp649
aI1
aa(lp650
g2
ag2
ag21
ag4
ag5
(g9
S'n\xccn\xc8\r}\x90@'
p651
tp652
Rp653
aI0
aa(lp654
g2
ag2
ag26
ag16
ag5
(g9
S'\x8b\xa3\xdf\xea\xd8M\x90@'
p655
tp656
Rp657
aI0
aa(lp658
g2
ag2
ag26
ag4
ag5
(g9
S'1N]\xec\xc5\xe7\x92@'
p659
tp660
Rp661
aI1
aa(lp662
g2
ag2
ag21
ag4
ag5
(g9
S'(?\xc4H\x97\xea\x92@'
p663
tp664
Rp665
aI1
aa(lp666
g2
ag2
ag3
ag16
ag5
(g9
S'?\x8cu\xbb\x9b,\x8c@'
p667
tp668
Rp669
aI0
aa(lp670
g2
ag2
ag3
ag4
ag5
(g9
S'f\xe8B\xce\x8a\xf6\x8f@'
p671
tp672
Rp673
aI0
aa(lp674
g2
ag2
ag3
ag16
ag5
(g9
S'/T\x84R|\xe5\x8d@'
p675
tp676
Rp677
aI1
aa(lp678
g2
ag2
ag3
ag16
ag5
(g9
S'&\xa3\xa1\rD\x99\x96@'
p679
tp680
Rp681
aI0
aa(lp682
g2
ag2
ag21
ag4
ag5
(g9
S'\xc8\x93\xb7\xd3\xb4\xf9\x94@'
p683
tp684
Rp685
aI1
aa.